
Allocating common symbols
Common symbol       size              file

STRINGLIST          0x140             main.o
lexer_lineno        0x4               main.o
current_separator   0x4               main.o
prompt              0x400             main.o
constant_dword      0x8               main.o
CONSTANTLIST        0x140             main.o
ClientAreaInfo      0x10              api.o
outfile_size        0x4               main.o
constant_before     0x2               main.o
identifier_count    0x4               main.o
BufferInfo          0x10              api.o
program_text_address
                    0x4               main.o
constant            0x20              main.o
return_index        0x4               main.o
main_return_type    0x4               main.o
no_output           0x4               main.o
main_found          0x4               main.o
lexer_firstline     0x4               main.o
stderr              0x10              stdlib.o
SPECIALLIST         0x140             main.o
file_i              0x200             main.o
function_main       0x4               main.o
parentheses_count   0x4               main.o
prompt_pos          0x10              stdlib.o
current_mmblock     0x10              stdlib.o
constant_base_found
                    0x4               main.o
return_found        0x4               main.o
compiler_name       0x4               main.o
id                  0x20              main.o
constant_word       0x4               main.o
finput              0x4               main.o
mm_prev_pointer     0x10              stdlib.o
special_count       0x4               main.o
modifier_found      0x4               main.o
asm_flag            0x4               main.o
messagebox_button2  0x10              api.o
g_using_gui         0x10              stdlib.o
lexer_lastline      0x4               main.o
stdin               0x10              stdlib.o
functionList        0x80              main.o
file_s              0x200             main.o
brace_start         0x4               main.o
stack_flag          0x4               main.o
heap_end            0x10              stdlib.o
SEPARATORLIST       0x140             main.o
current_special     0x4               main.o
peekSymbol          0x4               main.o
parentheses_start   0x4               main.o
rect                0x10              api.o
type_found          0x4               main.o
g_available_heap    0x10              stdlib.o
current_index       0x4               main.o
DATA                0x200             main.o
qualifier_found     0x4               main.o
lineno              0x4               main.o
brace_count         0x4               main.o
IDENTIFIERLIST      0x140             main.o
heap_start          0x10              stdlib.o
current_type        0x4               main.o
heapCount           0x10              stdlib.o
infile              0x200             main.o
HEAP_START          0x10              stdlib.o
keyword_count       0x4               main.o
prompt_max          0x10              stdlib.o
program_data_address
                    0x4               main.o
peekChar            0x4               main.o
next_index          0x4               main.o
temp_filename_length
                    0x4               main.o
program_header_address
                    0x4               main.o
BSS                 0x200             main.o
current_keyword     0x4               main.o
CurrentWindow       0x10              api.o
string_count        0x4               main.o
g_heap_pointer      0x10              stdlib.o
constant_aftes      0x2               main.o
parentheses_end     0x4               main.o
heapList            0x400             main.o
keyword_found       0x4               main.o
return_info         0x20              main.o
prompt_err          0x400             main.o
randseed            0x10              stdlib.o
program             0x10              main.o
KEYWORDLIST         0x140             main.o
current_semaphore   0x10              api.o
g_columns           0x10              stdlib.o
current_constant    0x4               main.o
HEAP_SIZE           0x10              stdlib.o
stack_count         0x4               main.o
stdout              0x10              stdlib.o
Streams             0x80              main.o
TOKENLIST           0x140             main.o
last_size           0x10              stdlib.o
directive_fould     0x4               main.o
last_valid          0x10              stdlib.o
g_rows              0x10              stdlib.o
function_main_buffer
                    0x200             main.o
current_identifier  0x4               main.o
temp_filename       0x4               main.o
prompt_out          0x400             main.o
current_string      0x4               main.o
mmblockList         0x400             stdlib.o
program_bss_address
                    0x4               main.o
dialogbox_button1   0x10              api.o
eofno               0x4               main.o
lexer_token_count   0x4               main.o
POS_BUFFER          0x80              tree.o
outfile             0x200             main.o
lexer_code          0x4               main.o
libcHeap            0x10              stdlib.o
function_return_type
                    0x4               main.o
separator_count     0x4               main.o
real_token_buffer   0x100             main.o
g_cursor_y          0x10              stdlib.o
messagebox_button1  0x10              api.o
constant_type_found
                    0x4               main.o
Heap                0x10              stdlib.o
brace_end           0x4               main.o
infile_size         0x4               main.o
dialogbox_button2   0x10              api.o
CursorInfo          0x10              api.o
mmblockCount        0x10              stdlib.o
prompt_status       0x10              stdlib.o
stack               0x200             main.o
constant_count      0x4               main.o
current_token       0x4               main.o
string_flag         0x4               main.o
exp_buffer          0x80              tree.o
stack_index         0x4               main.o
number_of_tokens    0x4               main.o
temp_file_queue     0x4               main.o
g_char_attrib       0x10              stdlib.o
ApplicationInfo     0x10              api.o
constant_byte       0x2               main.o
g_cursor_x          0x10              stdlib.o
HEAP_END            0x10              stdlib.o

Memory Configuration

Name             Origin             Length             Attributes
*default*        0x0000000000000000 0xffffffffffffffff

Linker script and memory map

                0x0000000000400000                __image_base__ = 0x400000
                0x0000000000000000                __dll__ = 0x0
                0x0000000000400000                ___ImageBase = 0x400000
                0x0000000000001000                __section_alignment__ = 0x1000
                0x0000000000000200                __file_alignment__ = 0x200
                0x0000000000000004                __major_os_version__ = 0x4
                0x0000000000000000                __minor_os_version__ = 0x0
                0x0000000000000001                __major_image_version__ = 0x1
                0x0000000000000000                __minor_image_version__ = 0x0
                0x0000000000000004                __major_subsystem_version__ = 0x4
                0x0000000000000000                __minor_subsystem_version__ = 0x0
                0x0000000000000003                __subsystem__ = 0x3
                0x0000000000200000                __size_of_stack_reserve__ = 0x200000
                0x0000000000001000                __size_of_stack_commit__ = 0x1000
                0x0000000000100000                __size_of_heap_reserve__ = 0x100000
                0x0000000000001000                __size_of_heap_commit__ = 0x1000
                0x0000000000000000                __loader_flags__ = 0x0
                0x0000000000000000                __dll_characteristics__ = 0x0

.text           0x0000000000401000     0xa000
                0x0000000000401000                code = .
                0x0000000000401000                _code = .
                0x0000000000401000                __code = .
 *(.head_x86)
 *(.text)
 .text          0x0000000000401000        0x9 crt0.o
                0x0000000000401000                _crt0Main
 .text          0x0000000000401009      0xb04 main.o
                0x0000000000401009                gramas_main
                0x00000000004011e6                gramas_main2
                0x000000000040146e                mainTextEditor
                0x0000000000401670                editorClearScreen
                0x00000000004016e9                create_tokenlist
                0x0000000000401778                fncc_print_tokenList
                0x00000000004017ee                gramccInitialize
                0x00000000004019f9                debugShowStat
 *fill*         0x0000000000401b0d        0x3 
 .text          0x0000000000401b10        0x0 ctype.o
 .text          0x0000000000401b10      0xda0 stdlib.o
                0x0000000000401b10                stdlib_system_call
                0x0000000000401b38                rtGetHeapStart
                0x0000000000401b42                rtGetHeapEnd
                0x0000000000401b4c                rtGetHeapPointer
                0x0000000000401b56                rtGetAvailableHeap
                0x0000000000401b60                heapSetLibcHeap
                0x0000000000401c07                AllocateHeap
                0x0000000000401e26                AllocateHeapEx
                0x0000000000401e39                FreeHeap
                0x0000000000401e43                heapInit
                0x0000000000401fe6                stdlibInitMM
                0x0000000000402050                libcInitRT
                0x0000000000402079                rand
                0x0000000000402096                srand
                0x00000000004020a3                xmalloc
                0x00000000004020ce                stdlib_die
                0x000000000040210f                malloc
                0x0000000000402150                free
                0x0000000000402155                calloc
                0x0000000000402198                system
                0x00000000004025a4                stdlib_strncmp
                0x0000000000402602                __findenv
                0x00000000004026cd                getenv
                0x0000000000402702                atoi
                0x00000000004027b7                reverse
                0x0000000000402816                itoa
 .text          0x00000000004028b0     0x2a10 stdio.o
                0x00000000004028b0                stdio_atoi
                0x0000000000402965                stdio_fntos
                0x0000000000402a64                fclose
                0x0000000000402aca                fopen
                0x0000000000402c0c                scroll
                0x0000000000402cce                puts
                0x00000000004031b5                printf3
                0x00000000004031d0                printf_atoi
                0x00000000004032bd                printf_i2hex
                0x000000000040332b                printf2
                0x00000000004034ab                sprintf
                0x00000000004034ef                putchar
                0x000000000040351b                outbyte
                0x000000000040369e                _outbyte
                0x00000000004036d1                input
                0x0000000000403839                stdio_system_call
                0x0000000000403861                getchar
                0x000000000040388d                stdioInitialize
                0x0000000000403a74                fflush
                0x0000000000403b06                fprintf
                0x0000000000403b7b                fputs
                0x0000000000403bf0                gets
                0x0000000000403c7d                ungetc
                0x0000000000403cba                ftell
                0x0000000000403ce4                fileno
                0x0000000000403d07                fgetc
                0x0000000000403d68                feof
                0x0000000000403da6                ferror
                0x0000000000403dcc                fseek
                0x0000000000403e46                fputc
                0x0000000000403e8e                stdioSetCursor
                0x0000000000403eb8                stdioGetCursorX
                0x0000000000403ee4                stdioGetCursorY
                0x0000000000403f10                scanf
                0x00000000004041c0                kvprintf
                0x000000000040514f                printf
                0x0000000000405187                vfprintf
                0x0000000000405213                stdout_printf
                0x0000000000405242                stderr_printf
                0x0000000000405271                perror
                0x0000000000405284                rewind
 .text          0x00000000004052c0      0x470 string.o
                0x00000000004052c0                strcmp
                0x000000000040531b                strncmp
                0x0000000000405379                memset
                0x00000000004053c2                memoryZeroMemory
                0x00000000004053eb                memcpy
                0x0000000000405428                strcpy
                0x0000000000405458                strcat
                0x0000000000405488                bcopy
                0x00000000004054af                bzero
                0x00000000004054ca                strlen
                0x00000000004054f5                strcspn
                0x0000000000405595                strspn
                0x0000000000405635                strtok_r
                0x000000000040570a                strtok
 .text          0x0000000000405730       0x90 unistd.o
                0x0000000000405730                unistd_system_call
                0x0000000000405758                execve
                0x0000000000405762                exit
                0x000000000040578d                fork
 .text          0x00000000004057c0     0x25d0 api.o
                0x00000000004057c0                system_call
                0x00000000004057e8                apiSystem
                0x0000000000405c18                system1
                0x0000000000405c39                system2
                0x0000000000405c5a                system3
                0x0000000000405c7b                system4
                0x0000000000405c9c                system5
                0x0000000000405cbd                system6
                0x0000000000405cde                system7
                0x0000000000405cff                system8
                0x0000000000405d20                system9
                0x0000000000405d41                system10
                0x0000000000405d62                system11
                0x0000000000405d83                system12
                0x0000000000405da4                system13
                0x0000000000405dc5                system14
                0x0000000000405de6                system15
                0x0000000000405e07                refresh_buffer
                0x0000000000405f9e                print_string
                0x0000000000405fa3                vsync
                0x0000000000405fd4                edit_box
                0x0000000000406003                chama_procedimento
                0x0000000000406033                SetNextWindowProcedure
                0x0000000000406063                set_cursor
                0x0000000000406092                put_char
                0x0000000000406097                carrega_bitmap_16x16
                0x00000000004060c0                apiShutDown
                0x00000000004060ee                apiInitBackground
                0x00000000004060f3                MessageBox
                0x00000000004065e5                mbProcedure
                0x0000000000406672                DialogBox
                0x0000000000406b64                dbProcedure
                0x0000000000406bf1                call_kernel
                0x0000000000406d71                call_gui
                0x0000000000406e02                APICreateWindow
                0x0000000000406e8e                APIRegisterWindow
                0x0000000000406ed0                APICloseWindow
                0x0000000000406f12                APISetFocus
                0x0000000000406f54                APIGetFocus
                0x0000000000406f80                APIKillFocus
                0x0000000000406fc2                APISetActiveWindow
                0x0000000000407004                APIGetActiveWindow
                0x0000000000407030                APIShowCurrentProcessInfo
                0x000000000040705c                APIresize_window
                0x0000000000407085                APIredraw_window
                0x00000000004070ae                APIreplace_window
                0x00000000004070d7                APImaximize_window
                0x0000000000407100                APIminimize_window
                0x0000000000407129                APIupdate_window
                0x0000000000407152                APIget_foregroung_window
                0x000000000040717e                APIset_foregroung_window
                0x00000000004071a7                apiExit
                0x00000000004071d2                kill
                0x00000000004071d7                dead_thread_collector
                0x0000000000407203                api_strncmp
                0x0000000000407261                refresh_screen
                0x000000000040728d                api_refresh_screen
                0x0000000000407297                apiReboot
                0x00000000004072c3                apiSetCursor
                0x00000000004072ed                apiGetCursorX
                0x0000000000407319                apiGetCursorY
                0x0000000000407345                apiGetClientAreaRect
                0x0000000000407371                apiSetClientAreaRect
                0x000000000040739a                apiCreateProcess
                0x00000000004073c3                apiCreateThread
                0x00000000004073ec                apiStartThread
                0x0000000000407415                apiFOpen
                0x000000000040744f                apiSaveFile
                0x00000000004074ad                apiDown
                0x0000000000407507                apiUp
                0x0000000000407561                enterCriticalSection
                0x00000000004075ba                exitCriticalSection
                0x00000000004075e6                initializeCriticalSection
                0x0000000000407612                apiBeginPaint
                0x000000000040761c                apiEndPaint
                0x0000000000407626                apiPutChar
                0x000000000040764f                apiDefDialog
                0x0000000000407659                apiGetSystemMetrics
                0x0000000000407682                api_set_current_keyboard_responder
                0x00000000004076ab                api_get_current_keyboard_responder
                0x00000000004076d7                api_set_current_mouse_responder
                0x0000000000407700                api_get_current_mouse_responder
                0x000000000040772c                api_set_window_with_text_input
                0x0000000000407772                api_get_window_with_text_input
                0x000000000040779e                gramadocore_init_execve
                0x00000000004077a8                apiDialog
                0x000000000040782d                api_getchar
                0x0000000000407859                apiDisplayBMP
                0x0000000000407c29                apiSendMessage
                0x0000000000407c6a                apiDrawText
                0x0000000000407cb1                apiGetWSScreenWindow
                0x0000000000407cdd                apiGetWSMainWindow
                0x0000000000407d09                apiCreateTimer
                0x0000000000407d32                apiGetSysTimeInfo
                0x0000000000407d5b                apiShowWindow
 .text          0x0000000000407d90      0xb08 lexer.o
                0x0000000000407dad                skip_white_space
                0x0000000000407f44                yylex
                0x00000000004087ed                lexerInit
                0x000000000040887c                error
 .text          0x0000000000408898     0x1168 parser.o
                0x0000000000408898                parse_sizeof
                0x0000000000408a50                parse_expression
                0x0000000000408aa5                parse_asm
                0x0000000000408c3d                parse_function
                0x0000000000408dda                parse_return
                0x0000000000408eb6                parse_if
                0x0000000000408fbb                parse_while
                0x00000000004090c0                parse_do
                0x00000000004090f0                parse_for
                0x0000000000409120                parse
                0x0000000000409932                parserInit
 .text          0x0000000000409a00      0x90b tree.o
                0x0000000000409a00                my_isdigit
                0x0000000000409a26                newNode
                0x0000000000409a5f                inorder
                0x0000000000409aa8                exibirEmOrdem
                0x0000000000409af1                exibirPreOrdem
                0x0000000000409b3a                exibirPosOrdem
                0x0000000000409bcc                insert
                0x0000000000409c3d                bst_main
                0x0000000000409e41                push
                0x0000000000409e81                pop
                0x0000000000409ebe                oper
                0x0000000000409f26                eval
                0x000000000040a00b                testtest_main
                0x000000000040a0ec                tree_eval
                0x000000000040b000                . = ALIGN (0x1000)
 *fill*         0x000000000040a30b      0xcf5 

.rodata         0x000000000040b000     0x180c
 .rodata        0x000000000040b000      0x544 main.o
 .rodata        0x000000000040b544      0x5d3 lexer.o
 *fill*         0x000000000040bb17        0x1 
 .rodata        0x000000000040bb18      0x8b6 parser.o
 *fill*         0x000000000040c3ce        0x2 
 .rodata        0x000000000040c3d0      0x43c tree.o

.eh_frame       0x000000000040d000      0x544
 .eh_frame      0x000000000040d000      0x114 main.o
 .eh_frame      0x000000000040d114       0xd4 lexer.o
 .eh_frame      0x000000000040d1e8      0x180 parser.o
 .eh_frame      0x000000000040d368      0x1dc tree.o

.rdata          0x000000000040e000      0xd20
 .rdata         0x000000000040e000      0x100 ctype.o
                0x000000000040e000                _ctype
 .rdata         0x000000000040e100      0x4f0 stdlib.o
 .rdata         0x000000000040e5f0      0x380 stdio.o
                0x000000000040e7d0                hex2ascii_data
 .rdata         0x000000000040e970      0x3a0 api.o

.data           0x000000000040ed20     0x22e0
                0x000000000040ed20                data = .
                0x000000000040ed20                _data = .
                0x000000000040ed20                __data = .
 *(.data)
 .data          0x000000000040ed20      0x558 main.o
                0x000000000040f220                copyright
                0x000000000040f258                program_name
                0x000000000040f270                standard_spec
                0x000000000040f274                running
 .data          0x000000000040f278        0x0 ctype.o
 .data          0x000000000040f278        0x0 stdlib.o
 .data          0x000000000040f278        0x0 stdio.o
 .data          0x000000000040f278        0x0 string.o
 .data          0x000000000040f278        0x0 unistd.o
 .data          0x000000000040f278      0x440 api.o
 *fill*         0x000000000040f6b8        0x8 
 .data          0x000000000040f6c0      0x4e4 lexer.o
 *fill*         0x000000000040fba4       0x1c 
 .data          0x000000000040fbc0      0x4e4 parser.o
 *fill*         0x00000000004100a4       0x1c 
 .data          0x00000000004100c0      0x4e4 tree.o
                0x0000000000411000                . = ALIGN (0x1000)
 *fill*         0x00000000004105a4      0xa5c 

.bss            0x0000000000411000    0x34540
                0x0000000000411000                bss = .
                0x0000000000411000                _bss = .
                0x0000000000411000                __bss = .
 *(.bss)
 .bss           0x0000000000411000     0x8008 main.o
 .bss           0x0000000000419008        0x0 ctype.o
 .bss           0x0000000000419008     0x8010 stdlib.o
                0x0000000000419008                environ
 .bss           0x0000000000421018       0x10 stdio.o
 .bss           0x0000000000421028       0x10 string.o
 .bss           0x0000000000421038        0x0 unistd.o
 .bss           0x0000000000421038     0x8010 api.o
 *fill*         0x0000000000429048       0x18 
 .bss           0x0000000000429060     0x8008 lexer.o
 *fill*         0x0000000000431068       0x18 
 .bss           0x0000000000431080     0x8008 parser.o
 *fill*         0x0000000000439088       0x18 
 .bss           0x00000000004390a0     0x8028 tree.o
                0x00000000004390a0                exp_offset
                0x00000000004390a4                buffer_offset
                0x0000000000442000                . = ALIGN (0x1000)
 *fill*         0x00000000004410c8      0xf38 
 COMMON         0x0000000000442000     0x2dba main.o
                0x0000000000442000                STRINGLIST
                0x0000000000442140                lexer_lineno
                0x0000000000442144                current_separator
                0x0000000000442160                prompt
                0x0000000000442560                constant_dword
                0x0000000000442580                CONSTANTLIST
                0x00000000004426c0                outfile_size
                0x00000000004426c4                constant_before
                0x00000000004426c8                identifier_count
                0x00000000004426cc                program_text_address
                0x00000000004426e0                constant
                0x0000000000442700                return_index
                0x0000000000442704                main_return_type
                0x0000000000442708                no_output
                0x000000000044270c                main_found
                0x0000000000442710                lexer_firstline
                0x0000000000442720                SPECIALLIST
                0x0000000000442860                file_i
                0x0000000000442a60                function_main
                0x0000000000442a64                parentheses_count
                0x0000000000442a68                constant_base_found
                0x0000000000442a6c                return_found
                0x0000000000442a70                compiler_name
                0x0000000000442a80                id
                0x0000000000442aa0                constant_word
                0x0000000000442aa4                finput
                0x0000000000442aa8                special_count
                0x0000000000442aac                modifier_found
                0x0000000000442ab0                asm_flag
                0x0000000000442ab4                lexer_lastline
                0x0000000000442ac0                functionList
                0x0000000000442b40                file_s
                0x0000000000442d40                brace_start
                0x0000000000442d44                stack_flag
                0x0000000000442d60                SEPARATORLIST
                0x0000000000442ea0                current_special
                0x0000000000442ea4                peekSymbol
                0x0000000000442ea8                parentheses_start
                0x0000000000442eac                type_found
                0x0000000000442eb0                current_index
                0x0000000000442ec0                DATA
                0x00000000004430c0                qualifier_found
                0x00000000004430c4                lineno
                0x00000000004430c8                brace_count
                0x00000000004430e0                IDENTIFIERLIST
                0x0000000000443220                current_type
                0x0000000000443240                infile
                0x0000000000443440                keyword_count
                0x0000000000443444                program_data_address
                0x0000000000443448                peekChar
                0x000000000044344c                next_index
                0x0000000000443450                temp_filename_length
                0x0000000000443454                program_header_address
                0x0000000000443460                BSS
                0x0000000000443660                current_keyword
                0x0000000000443664                string_count
                0x0000000000443668                constant_aftes
                0x000000000044366c                parentheses_end
                0x0000000000443680                heapList
                0x0000000000443a80                keyword_found
                0x0000000000443aa0                return_info
                0x0000000000443ac0                prompt_err
                0x0000000000443ec0                program
                0x0000000000443ee0                KEYWORDLIST
                0x0000000000444020                current_constant
                0x0000000000444024                stack_count
                0x0000000000444040                Streams
                0x00000000004440c0                TOKENLIST
                0x0000000000444200                directive_fould
                0x0000000000444220                function_main_buffer
                0x0000000000444420                current_identifier
                0x0000000000444424                temp_filename
                0x0000000000444440                prompt_out
                0x0000000000444840                current_string
                0x0000000000444844                program_bss_address
                0x0000000000444848                eofno
                0x000000000044484c                lexer_token_count
                0x0000000000444860                outfile
                0x0000000000444a60                lexer_code
                0x0000000000444a64                function_return_type
                0x0000000000444a68                separator_count
                0x0000000000444a80                real_token_buffer
                0x0000000000444b80                constant_type_found
                0x0000000000444b84                brace_end
                0x0000000000444b88                infile_size
                0x0000000000444ba0                stack
                0x0000000000444da0                constant_count
                0x0000000000444da4                current_token
                0x0000000000444da8                string_flag
                0x0000000000444dac                stack_index
                0x0000000000444db0                number_of_tokens
                0x0000000000444db4                temp_file_queue
                0x0000000000444db8                constant_byte
 *fill*         0x0000000000444dba        0x2 
 COMMON         0x0000000000444dbc      0x5c0 stdlib.o
                0x0000000000444dbc                stderr
                0x0000000000444dcc                prompt_pos
                0x0000000000444ddc                current_mmblock
                0x0000000000444dec                mm_prev_pointer
                0x0000000000444dfc                g_using_gui
                0x0000000000444e0c                stdin
                0x0000000000444e1c                heap_end
                0x0000000000444e2c                g_available_heap
                0x0000000000444e3c                heap_start
                0x0000000000444e4c                heapCount
                0x0000000000444e5c                HEAP_START
                0x0000000000444e6c                prompt_max
                0x0000000000444e7c                g_heap_pointer
                0x0000000000444e8c                randseed
                0x0000000000444e9c                g_columns
                0x0000000000444eac                HEAP_SIZE
                0x0000000000444ebc                stdout
                0x0000000000444ecc                last_size
                0x0000000000444edc                last_valid
                0x0000000000444eec                g_rows
                0x0000000000444efc                mmblockList
                0x00000000004452fc                libcHeap
                0x000000000044530c                g_cursor_y
                0x000000000044531c                Heap
                0x000000000044532c                mmblockCount
                0x000000000044533c                prompt_status
                0x000000000044534c                g_char_attrib
                0x000000000044535c                g_cursor_x
                0x000000000044536c                HEAP_END
 COMMON         0x000000000044537c       0xb0 api.o
                0x000000000044537c                ClientAreaInfo
                0x000000000044538c                BufferInfo
                0x000000000044539c                messagebox_button2
                0x00000000004453ac                rect
                0x00000000004453bc                CurrentWindow
                0x00000000004453cc                current_semaphore
                0x00000000004453dc                dialogbox_button1
                0x00000000004453ec                messagebox_button1
                0x00000000004453fc                dialogbox_button2
                0x000000000044540c                CursorInfo
                0x000000000044541c                ApplicationInfo
 *fill*         0x000000000044542c       0x14 
 COMMON         0x0000000000445440      0x100 tree.o
                0x0000000000445440                POS_BUFFER
                0x00000000004454c0                exp_buffer
                0x0000000000445540                end = .
                0x0000000000445540                _end = .
                0x0000000000445540                __end = .
LOAD crt0.o
LOAD main.o
LOAD ctype.o
LOAD stdlib.o
LOAD stdio.o
LOAD string.o
LOAD unistd.o
LOAD api.o
LOAD lexer.o
LOAD parser.o
LOAD tree.o
OUTPUT(GRAMAS.BIN pe-i386)

.comment        0x0000000000000000       0x6c
 .comment       0x0000000000000000       0x1b main.o
 .comment       0x000000000000001b       0x1b lexer.o
 .comment       0x0000000000000036       0x1b parser.o
 .comment       0x0000000000000051       0x1b tree.o

.note.GNU-stack
                0x0000000000000000        0x0
 .note.GNU-stack
                0x0000000000000000        0x0 main.o
 .note.GNU-stack
                0x0000000000000000        0x0 lexer.o
 .note.GNU-stack
                0x0000000000000000        0x0 parser.o
 .note.GNU-stack
                0x0000000000000000        0x0 tree.o
