
Allocating common symbols
Common symbol       size              file

_timerShowTextCursor
                    0x4               timer.o
_framepoolBackBuffer3
                    0x4               main.o
_guiMenu            0x4               main.o
_usessionList       0x40              main.o
_terminalOffsetMax  0x4               main.o
_g_backbuffer_va    0x4               main.o
_g_module_volume_initialized
                    0x4               main.o
_server_stdio       0x4               main.o
_menuList           0x400             main.o
_Graphics           0x4               main.o
_framepoolList      0x1000            main.o
_dispatcherType     0x4               main.o
_pci_handler_address
                    0x4               main.o
_xxxinini           0x4               input.o
_mainButton3        0x4               main.o
_zicaaaaadasf       0x4               main.o
_IdleThread         0x4               main.o
_contextESP         0x4               x86cont.o
_Irq9               0x4               main.o
_g_frontbuffer_va   0x4               main.o
_clientCW           0x4               main.o
_userconfig_Status  0x4               main.o
_prompt             0x100             main.o
_contextEDX         0x4               x86cont.o
_MenuBar            0x4               main.o
_semaforo_color     0x4               main.o
_g_module_debug_initialized
                    0x4               main.o
_threadList         0x1000            main.o
_pci_device         0x4               main.o
_g_module_disk_initialized
                    0x4               main.o
_terminalOffset     0x4               main.o
_kernel_heap_end    0x4               main.o
_scrolllock_status  0x4               main.o
_screenGrid         0x200             main.o
_wait_queue         0x4               main.o
_windowzoneStart    0x4               main.o
_partition          0x4               main.o
_cwArg1             0x4               gde_serv.o
_save_client_rect_top
                    0x4               window.o
_dma_addr           0x4               ata.o
_fatbits            0x4               main.o
_g9x14fontAddress   0x4               main.o
_framepoolBackBuffer2
                    0x4               main.o
_CurrentChannel     0x4               main.o
_task_switch_status
                    0x4               main.o
_ata_record_dev     0x1               main.o
_systemzoneEnd      0x4               main.o
_CurrentConsole     0x4               main.o
_lineOffsetMax      0x4               main.o
_delta_x            0x1               main.o
_serverSP           0x4               main.o
_LocalHostHTTPSocket
                    0x4               main.o
_ioControl_mouse    0x4               main.o
_GRID               0x4               main.o
_cursorIconBuffer   0x4               main.o
_preempted_task     0x4               main.o
_ActiveWindow       0x4               main.o
_GRAMADOCORE        0x110             ipccore.o
_mouse_buttom_3     0x4               main.o
_screen_height      0x4               screen.o
_capslock_status    0x4               main.o
_KernelArgs         0x10              main.o
_contextFS          0x4               x86cont.o
_Irq5               0x4               main.o
_contextDS          0x4               x86cont.o
_Irq13              0x4               main.o
_cwArg2             0x4               gde_serv.o
_Irq2               0x4               main.o
_pcideviceList      0x80              main.o
_memorysizeAvailablePhysicalMemory
                    0x4               main.o
_IpcProcedure       0x4               main.o
_fullscreen_window  0x4               main.o
_contextESI         0x4               x86cont.o
_xxx_gdt            0x100             main.o
_g_navigationbar_height
                    0x4               main.o
_keyboard_message_head
                    0x4               main.o
_windowstations_count
                    0x4               main.o
_textcursorStatus   0x4               main.o
_pmiMemoryInfo      0x4               main.o
_mm_used_heappool   0x4               main.o
_current_stdin      0x4               main.o
_SavedRect          0x4               main.o
_TaskManThread      0x4               main.o
_current_volume_string
                    0x4               main.o
_mouse_button_action
                    0x4               main.o
_Irq15              0x4               main.o
_g_module_fs_initialized
                    0x4               main.o
_bmp_change_color_flag
                    0x4               main.o
_framepoolBackBuffer4
                    0x4               main.o
_idleprocessorList  0x80              main.o
_g_driver_hdd_initialized
                    0x4               main.o
_g9x16fontAddress   0x4               main.o
_storage            0x4               main.o
_systemzoneStart    0x4               main.o
_waiting_procs      0x4               main.o
_running_tasks      0x4               main.o
_desktop_Conductor2
                    0x4               main.o
_pciListOffset      0x4               pci.o
_g_device_screen_width
                    0x4               main.o
_desktop_rootConductor
                    0x4               main.o
_extra              0x4               main.o
_cwArg11            0x4               gde_serv.o
_fsbFrames          0x1000            main.o
_CurrentTTY         0x4               main.o
_g_user_space_framepool_index
                    0x4               main.o
_Initialization     0x18              main.o
_Console            0x4               main.o
_next_thread        0x4               main.o
_GUI_CONFIG         0x3c              main.o
_systemzoneSize     0x4               main.o
_rtcError           0x4               rtc.o
_zorderCounter      0x4               main.o
_mmFramesSuperBlockTotalUsed
                    0x4               main.o
_quantum            0x4               main.o
_stderr             0x4               main.o
_g_mainwindow_width
                    0x4               main.o
_cur_process        0x4               main.o
_waiting_list_head  0x4               main.o
_FileAccess         0x4               main.o
_rtcTicks           0x4               rtc.o
_g_logged           0x4               main.o
_file_TaskMan       0x4               main.o
_RGBA               0x4               main.o
_desktop0           0x4               main.o
_processNewPID      0x4               process.o
_cwArg8             0x4               gde_serv.o
_blocked_list_head  0x4               main.o
_current_dev        0x4               ata.o
_nicList            0x20              main.o
_gui                0x4               main.o
_CurrentUserSession
                    0x4               main.o
_g_device_screen_height
                    0x4               main.o
_g_mousepointer_height
                    0x4               main.o
_g_module_uem_initialized
                    0x4               main.o
_processor          0x4               main.o
_userList           0x40              main.o
_prompt_pos         0x4               main.o
_saved_mouse_x      0x4               main.o
_cwArg3             0x4               gde_serv.o
_Irq10              0x4               main.o
_Conductor          0x4               main.o
_ide_handler_address
                    0x4               main.o
_Process            0x4               main.o
_mbr                0x4               main.o
_current_mmblock    0x4               main.o
_deviceList         0x400             main.o
___spinlock_ipc     0x4               main.o
_ASpace             0x4               main.o
_objects_um         0xc0c0            main.o
_mmFramesSuperBlockSize
                    0x4               main.o
_kernel_stack_start
                    0x4               main.o
_Rtc                0x4               main.o
_caller_process_id  0x4               process.o
_start_new_task_address
                    0x4               main.o
_g_module_gui_initialized
                    0x4               main.o
_file_Init          0x4               main.o
_KeInitPhase        0x4               main.o
_windows_count      0x4               main.o
_timerColor         0x4               timer.o
_pagetableList      0x1000            main.o
_combobox_window    0x4               main.o
_framepoolBackBuffer1
                    0x4               main.o
_g_driver_video_initialized
                    0x4               main.o
_active_window      0x4               main.o
_mm_used_gramadocore_taskman_heap
                    0x4               main.o
_objects_km         0xc0c0            main.o
_vfs                0x4               main.o
_current_pci_device
                    0x4               main.o
_file_InitTXT       0x4               main.o
_g_show_text_cursor
                    0x4               main.o
_Hardware           0x4               main.o
_DefaultUserSession
                    0x4               main.o
_mm_prev_pointer    0x4               memory.o
_cwArg9             0x4               gde_serv.o
_current_process    0x4               main.o
_mmglobalInitialingVAR
                    0x4               main.o
_appIconBuffer      0x4               main.o
_current_desktop    0x4               main.o
_picError           0x4               pic.o
_Cursor             0x4               main.o
_numlock_status     0x4               main.o
_usession0          0x4               main.o
_g_gramadocore_shell_heap_size
                    0x4               main.o
_videoError         0x4               video.o
_CurrentSocket      0x4               main.o
_TaskBar            0x4               main.o
_g_module_logoff_initialized
                    0x4               main.o
_pagetableCurrent   0x4               main.o
_timerTextCursorStatus
                    0x4               timer.o
_usession_Conductor
                    0x4               main.o
_g8x14fontAddress   0x4               main.o
_Irq12              0x4               main.o
_timerStatus        0x4               timer.o
_mainButton1        0x4               main.o
_mm_used_gramadocore_shell_heap
                    0x4               main.o
_scStatus           0x4               main.o
_stdin              0x4               main.o
_g_frontbuffer_pa   0x4               main.o
_old_mouse_buttom_1
                    0x4               main.o
_gStreams           0x4               main.o
_mmFramesSuperBlockTotalFree
                    0x4               main.o
_gcharWidth         0x4               main.o
_logonMenu          0x4               main.o
_gTaskmanPageDirectoryAddress
                    0x4               main.o
_savedmouseoverwindowY
                    0x4               main.o
_file_BootLoader    0x4               main.o
_socketList         0x80              main.o
_g_module_logon_initialized
                    0x4               main.o
_client_stderr      0x4               main.o
_next_address       0x4               main.o
_destroy_window     0x4               main.o
_dispatcherQueueIndex
                    0x4               main.o
_fileIconBuffer     0x4               main.o
_room0              0x4               main.o
_kernel_heap_start  0x4               main.o
_g8x16fontAddress   0x4               main.o
_g_current_object   0x4               main.o
_PrideColorScheme   0x4               main.o
_current_room       0x4               main.o
_mac_address        0x4               main.o
_queue              0x4               main.o
_system_disk        0x4               main.o
_DispatchCountBlock
                    0x4               main.o
_current_dead_process
                    0x4               main.o
_cwArg10            0x4               gde_serv.o
_shift_status       0x4               main.o
_ide_dma_prdt       0x20              main.o
_current_directory  0x4               main.o
_g_wm_pid           0x4               main.o
_vfs_handle_list    0x800             main.o
_sys_time_ms        0x4               main.o
_kernel_stack_start_pa
                    0x4               main.o
_rect               0x4               main.o
_partition_chars    0x4               main.o
_logonStatus        0x4               main.o
_framepoolFrontBuffer3
                    0x4               main.o
_current_window     0x4               main.o
_terminalIconBuffer
                    0x4               main.o
_g_available_heap   0x4               main.o
_start_new_task_id  0x4               main.o
_process_Conductor2
                    0x4               main.o
_g_heap_count       0x4               main.o
_alt_status         0x4               main.o
_schedulerType      0x4               main.o
_g_cursor_width     0x4               main.o
_current_disk       0x4               main.o
_volume1_rootdir    0x4               main.o
_g_new_message      0x4               main.o
_pwd_initialized    0x4               main.o
_Firmware           0x4               main.o
_volume_bootpartition
                    0x4               main.o
_file_BootManager   0x4               main.o
_current_dead_thread
                    0x4               main.o
_current_keyboard_responder
                    0x4               main.o
_system_message_write
                    0x4               main.o
_semaforo_priority  0x4               main.o
_mm_used_gramadocore_init_heap
                    0x4               main.o
_mouseover_window   0x4               main.o
_kbMsgStatus        0x4               main.o
_g_module_objectmanager_initialized
                    0x4               main.o
_ata_record_channel
                    0x1               main.o
_zorderTopWindow    0x4               main.o
_list               0x10000           write.o
_gKernelPageDirectoryAddress
                    0x4               main.o
_g_current_framepool
                    0x4               main.o
_current_taskman_server
                    0x4               main.o
_picStatus          0x4               pic.o
_DefaultUser        0x4               main.o
_task_color         0x4               main.o
_framepoolFrontBuffer1
                    0x4               main.o
_contextEIP         0x4               x86cont.o
_heapCount          0x4               main.o
_windowzoneEnd      0x4               main.o
_current_filesystem
                    0x4               main.o
_Thread             0x4               main.o
_g_pagedpool_va     0x4               main.o
_current_stderr     0x4               main.o
_ProcessorBlock     0x30              main.o
_current_mouse_responder
                    0x4               main.o
_pagedirectoryIdleProcess
                    0x4               main.o
_client_stdio       0x4               main.o
_volume_vfs         0x4               main.o
_SATAFlag           0x4               ahci.o
_g_mousepointer_x   0x4               main.o
_terminal_count     0x4               main.o
_usersession_start  0x4               main.o
_g_cursor_top       0x4               main.o
_processors_count   0x4               main.o
_CurrentProcedure   0x4               main.o
_mmFramesSuperBlockTotal
                    0x4               main.o
_periodic_procs     0x4               main.o
_g_inputmode        0x4               main.o
_UserHeap           0x4               main.o
_keyboard_handler_address
                    0x4               main.o
_kernel_stack_end   0x4               main.o
_file_Kernel        0x4               main.o
_current_tss        0x4               main.o
_g_object_manager_status
                    0x4               main.o
_g_cursor_right     0x4               main.o
_desktop_Conductor  0x4               main.o
_cwFlag             0x4               gde_serv.o
_InitProcess        0x4               main.o
_system_volume      0x4               main.o
_microkernelStatus  0x4               main.o
_zones              0x4               main.o
_lineBuffer         0x4               main.o
_miMemoryInfo       0x4               main.o
_desktopDefault     0x4               main.o
_g_module_runtime_initialized
                    0x4               main.o
_screen_width       0x4               screen.o
_ioControl_keyboard
                    0x4               main.o
_pci_supported      0x4               pci.o
_file_LA            0x4               main.o
_VersionInfo        0x4               main.o
_inode_list         0x800             main.o
_nic_idt_entry_new_address
                    0x4               nicintel.o
_file_CFE           0x4               main.o
_system_procs       0x4               main.o
_window_with_focus  0x4               main.o
_g_proc_status      0x4               main.o
_framepoolCurrent   0x4               main.o
_desktopList        0x40              main.o
_gNextKeyboardMessage
                    0x4               main.o
_pagedirectoryShared
                    0x4               main.o
_g_heappool_va      0x4               main.o
_g_current_ide_channel
                    0x4               main.o
_idle               0x4               main.o
_g_spc              0x4               main.o
_cwArg12            0x4               gde_serv.o
_KernelHeap         0x4               main.o
_Signal             0x4               signal.o
_xxxxcrazy_stuff    0x4               main.o
_pagedirectoryCurrent
                    0x4               main.o
_gLogonPID          0x4               main.o
_VECTORS            0x400             main.o
_CurrentWindow      0x4               main.o
_g_product_type     0x4               main.o
_vbr                0x4               main.o
_Irq14              0x4               main.o
_g_nstream          0x4               main.o
_g_heap_pointer     0x4               main.o
_LineShell          0x4               main.o
_mouse_pos_x        0x4               main.o
_ipcStatus          0x4               main.o
_WindowWithFocus    0x4               main.o
_task_count         0x4               main.o
_Screen             0x4               main.o
_pipe_gramadocore_init_execve
                    0x4               main.o
_channelList        0x80              main.o
_g_kernel_nonpaged_memory
                    0x4               main.o
_timer_handler_address
                    0x4               main.o
_kernel_switch      0x4               main.o
_old_mouse_buttom_3
                    0x4               main.o
_guiStatus          0x4               main.o
_window_rootConductor
                    0x4               main.o
_terminalLineMax    0x4               main.o
_heapList           0x20              main.o
_cwArg5             0x4               gde_serv.o
_ttyCurrentX        0x4               main.o
_volume2_rootdir    0x4               main.o
_CurrentDesktop     0x4               main.o
_DriveContext       0x4               main.o
_prompt_err         0x100             main.o
_abnt2              0x4               main.o
_gFocusBlocked      0x4               main.o
_current_socket     0x4               main.o
_sata_handler_address
                    0x4               main.o
_desktops_count     0x4               main.o
_KernelPages        0x4               main.o
_directory_entry_list
                    0x800             main.o
_g_driver_apic_initialized
                    0x4               main.o
__lockfocus         0x4               main.o
_file_download      0x4               main.o
_saved_mouse_y      0x4               main.o
_contextGS          0x4               x86cont.o
_current_usersession
                    0x4               main.o
_g_video_mode       0x4               main.o
_fat                0x4               main.o
_ttyCurrentY        0x4               main.o
_mm_used_pagedpool  0x4               main.o
_stdio_verbosemode_flag
                    0x4               main.o
_file_bin           0x4               main.o
_mmFramesSuperBlockEnd
                    0x4               main.o
_processList        0x1000            main.o
_memorysizeAvailableVirtualMemory
                    0x4               main.o
_Mind               0x10              debug.o
_memorysizeExtendedMemory
                    0x4               main.o
_Irq8               0x4               main.o
_lineLine           0x4               main.o
_gPagedPollStart    0x4               main.o
_roomList           0x40              main.o
_g_backbuffer_pa    0x4               main.o
_systemzone         0x4               main.o
_keyboard_message_tail
                    0x4               main.o
_dead_thread_collector_status
                    0x4               main.o
_ata_pci            0x4               main.o
_ATAFlag            0x4               main.o
_sys_time_hz        0x4               main.o
_gLogoffPID         0x4               main.o
_gfontSize          0x4               main.o
_start_new_task_status
                    0x4               main.o
_CurrentProcess     0x4               main.o
_framepoolFrontBuffer4
                    0x4               main.o
_current_semaphore  0x4               main.o
_thread_failed_flag
                    0x4               x86fault.o
_realtimeprocessorList
                    0x80              main.o
_timer_cursor_used  0x4               main.o
_g_gramadocore_init_heap_size
                    0x4               main.o
_clientCP           0x4               main.o
_cwArg7             0x4               gde_serv.o
_g_gramadocore_init_heap_va
                    0x4               main.o
_g_total_physical_memory
                    0x4               main.o
_ready_list_head    0x4               main.o
_g_mousepointer_width
                    0x4               main.o
_HANDLERS           0x420             main.o
_usession_rootConductor
                    0x4               main.o
_current_terminal   0x4               main.o
_line_stderr        0x4               main.o
_lineOffset         0x4               main.o
_window_Conductor2  0x4               main.o
_g_machine_type     0x4               main.o
_contextEFLAGS      0x4               x86cont.o
_client_stdout      0x4               main.o
_eventStatus        0x4               main.o
_Irq11              0x4               main.o
_current_stdout     0x4               main.o
_modulesStatus      0x4               modules.o
_ipcBuffer          0x4               main.o
_newtask_EIP        0x4               main.o
_memorysizeTotalVirtualMemory
                    0x4               main.o
_top_window         0x4               main.o
_flagRefreshMouseOver
                    0x4               ps2mouse.o
_menuitemDefault    0x4               main.o
_hddError           0x4               hdd.o
_g_scheduler_status
                    0x4               main.o
_FULLSCREEN_TABWINDOW
                    0x4               main.o
_quit_message       0x4               main.o
_g_xserver_pid      0x4               main.o
_network_status     0x4               network.o
_TaskManProcess     0x4               main.o
_LineHead           0x4               main.o
_ide_ports          0x60              main.o
_SystemUser         0x4               main.o
_mm_used_backbuffer
                    0x4               main.o
_current_quantum    0x4               main.o
_stdout             0x4               main.o
_dead_thread_collector_flag
                    0x4               main.o
_activeprocessorList
                    0x80              main.o
_windowzoneSize     0x4               main.o
_g_driver_rtc_initialized
                    0x4               main.o
_SystemClasses      0xc               main.o
_objects_gui        0xc0c0            main.o
_g_navigationbar_width
                    0x4               main.o
_timerIdleState     0x4               timer.o
_gws_currentfont_address
                    0x4               main.o
_windowList         0x1000            main.o
_gPagedPollEnd      0x4               main.o
_windowzone         0x4               main.o
_ShellThread        0x4               main.o
_file_CS            0x4               main.o
_memorysizeFree     0x4               main.o
_contextECX         0x4               x86cont.o
_Streams            0x80              main.o
_Irq6               0x4               main.o
_timerError         0x4               timer.o
_gInitPageDirectoryAddress
                    0x4               main.o
_IDE                0x14              main.o
_g_cursor_left      0x4               main.o
_g_system_color     0x4               main.o
_g_cursor_bottom    0x4               main.o
_Irq3               0x4               main.o
_realtimeStatus     0x4               main.o
_editbox_window     0x4               main.o
_kernel_request     0x4               main.o
_idle_thread        0x4               main.o
_g_pageable_framepool_index_max
                    0x4               main.o
_current_thread     0x4               main.o
_Pipes              0x20              main.o
_processorsList     0x80              main.o
_fsStatus           0x4               window.o
_Bank               0x4               main.o
_fileBuffer         0x4               main.o
_timer_cursor_status
                    0x4               main.o
_g_current_vm       0x4               main.o
_rectClientArea     0x4               main.o
_file_Shell         0x4               main.o
_xxxxsavemessage    0x4               window.o
_current_target_dir
                    0x2c              main.o
_contextEBP         0x4               x86cont.o
_xxxx_nothingxxxx   0x4               install.o
_mm_used_kernel_area
                    0x4               main.o
_schedulerQueue     0x10              main.o
_systemSize         0x4               main.o
_object             0x4               main.o
_gDeveloperOptions  0x4               main.o
_keybuffer          0x80              main.o
_zorder             0x4               main.o
_keyboard_queue     0x120             main.o
_last_size          0x4               memory.o
_forkid             0x4               main.o
_menus_count        0x4               main.o
_current_volume     0x4               main.o
_shutdown_address   0x4               main.o
_ioControl          0x80              main.o
_devices            0x4               main.o
_terminalLine       0x4               main.o
_serialportError    0x4               main.o
_desktop1           0x4               main.o
_gcharHeight        0x4               main.o
_g_use_default_user
                    0x4               main.o
_mouse_buttom_1     0x4               main.o
_RING0IDLEThread    0x4               main.o
_lock_taskswitch    0x4               ts.o
_mouse_status       0x1               main.o
_framepoolFrontBuffer2
                    0x4               main.o
_pipe_execve        0x4               main.o
_g_gramadocore_taskman_heap_va
                    0x4               main.o
_diskList           0x1000            main.o
_server_stderr      0x4               main.o
_ready_queue_dev    0x4               ata.o
_Conductor2         0x4               main.o
_KernelClasses      0x4               main.o
_last_valid         0x4               memory.o
_fsbFreeFrames      0x1000            main.o
_old_mouse_buttom_2
                    0x4               main.o
_screenBuffers      0x4               main.o
_current_process_pagedirectory_address
                    0x4               main.o
_rr_procs           0x4               main.o
_KernelProcess      0x4               main.o
_delta_y            0x1               main.o
_framepoolPageableSpace
                    0x4               main.o
_save_client_rect_left
                    0x4               window.o
_lineLineMax        0x4               main.o
_KernelHeapSize     0x4               main.o
_xxx_gdt_ptr        0x6               main.o
_HostDeviceInfo     0x4               main.o
_prompt_out         0x100             main.o
_demand_paging_flag
                    0x4               x86fault.o
_bmp_selected_color
                    0x4               main.o
_g_driver_pci_initialized
                    0x4               main.o
_file_cluster_list  0x800             main.o
_escape_status      0x4               main.o
_memorysizeOtherMemory
                    0x4               main.o
_IpcProcedureEx     0x4               main.o
_mmblockList        0x8000            main.o
_g_driver_timer_initialized
                    0x4               main.o
_cwArg4             0x4               gde_serv.o
_HostInfo           0x4               main.o
_ata_identify_dev_buf
                    0x4               main.o
_Irq0               0x4               main.o
_file_dd            0x4               main.o
_DSpace             0x4               main.o
_g_next_app         0x4               main.o
_gws_status         0x4               kgws.o
_g_gramadocore_taskman_heap_size
                    0x4               main.o
_timerList          0x80              main.o
_file_libs          0x4               main.o
_idle_proc          0x4               main.o
_clientCR           0x4               main.o
_g_useGUI           0x4               main.o
_g_filesystem_type  0x4               main.o
_Irq4               0x4               main.o
_dirCount           0x4               main.o
_ShellProcess       0x4               main.o
_keybuffer_head     0x4               main.o
_contextCS          0x4               x86cont.o
_CurrentBuffer      0x4               main.o
_CurrentColorScheme
                    0x4               main.o
_next_quantum       0x4               main.o
_process_rootConductor
                    0x4               main.o
_dev_nport          0x20              main.o
_stdio_terminalmode_flag
                    0x4               main.o
_menuDefault        0x4               main.o
_framepoolSmallSystemUserSpace
                    0x4               main.o
_memorysizeTotalPhysicalMemory
                    0x4               main.o
_ata                0x18              main.o
_rtcStatus          0x4               rtc.o
_rootConductor      0x4               main.o
_mouse_pos_y        0x4               main.o
_gSystemStatus      0x4               main.o
_DeveloperWindowCursor
                    0x4               main.o
_fatal_error_flag   0x4               x86fault.o
_videoStatus        0x4               video.o
_tab_status         0x4               main.o
_Version            0x4               main.o
_file_pwd           0x4               main.o
_REQUEST            0x34              main.o
_userenvironmentStatus
                    0x4               main.o
_g_guiMinimal       0x4               main.o
_time_out           0x4               main.o
_current_file       0x4               main.o
_pagedirectoryKernelProcess
                    0x4               main.o
_g_mainwindow_height
                    0x4               main.o
_VideoBlock         0x1c              main.o
_System             0x4               main.o
_KernelSize         0x4               main.o
_Line               0x4               main.o
_dispatcherReadyList
                    0x28              main.o
_ScreenInfo         0x4               main.o
_CurrentCursor      0x4               main.o
_g8x8fontAddress    0x4               main.o
_KernelStackSize    0x4               main.o
_zica               0x4               main.o
_save_client_rect_height
                    0x4               window.o
_memorysizeInstalledPhysicalMemory
                    0x4               main.o
_keybuffer_index    0x4               main.o
_g_cursor_color     0x4               main.o
_memorysizeTotal    0x4               main.o
_pageAllocList      0x1000            main.o
_g_system_mode      0x4               main.o
_Irq1               0x4               main.o
_g_current_video_mode
                    0x4               main.o
_g_heap_count_max   0x4               main.o
_ESCAPE_E0          0x4               main.o
_cur_thread         0x4               main.o
_current_group      0x4               main.o
_process_Conductor  0x4               main.o
_BackBufferInfo     0x4               main.o
_file_users         0x4               main.o
_conductorIndex     0x4               main.o
_cwArg6             0x4               gde_serv.o
_g_mousepointer_y   0x4               main.o
_g_framepool_max    0x4               main.o
_task_waiting       0x4               main.o
_keybuffer_tail     0x4               main.o
_g_cursor_y         0x4               main.o
_mm_used_user_area  0x4               main.o
_QUEUES             0xc               main.o
_volume_systempartition
                    0x4               main.o
_nic_idt_entry_new_number
                    0x1               nicintel.o
_Irq7               0x4               main.o
_banksCount         0x4               main.o
_Pic                0x4               main.o
_Platform           0x4               main.o
_system_message_read
                    0x4               main.o
_contextEAX         0x4               x86cont.o
_errno              0x4               main.o
_old                0x4               main.o
_g_heap_size        0x4               main.o
_zorderList         0x200             main.o
_contextEBX         0x4               x86cont.o
_gSystemEdition     0x4               main.o
_pagedirectoryList  0x1000            main.o
_framepoolMediumSystemUserSpace
                    0x4               main.o
_mm_used_lfb        0x4               main.o
_menubarDefault     0x4               main.o
_filesystem         0x4               main.o
_logoffStatus       0x4               main.o
_current_user       0x4               main.o
_WindowProcedure    0x4               main.o
_framepoolKernelSpace
                    0x4               main.o
_memorysizeBaseMemory
                    0x4               main.o
_g_current_ide_device
                    0x4               main.o
_key_status         0x4               main.o
_server_stdout      0x4               main.o
_contextEDI         0x4               x86cont.o
_timerLock          0x4               timer.o
_g_file_system_type
                    0x4               main.o
_currentNIC         0x4               main.o
_g_gramadocore_shell_heap_va
                    0x4               main.o
_mmblockCount       0x4               main.o
_prompt_status      0x4               main.o
_pagedirectoryTaskmanProcess
                    0x4               main.o
_ambiente           0x4               main.o
_framepoolLargeSystemUserSpace
                    0x4               main.o
_g_platform_type    0x4               main.o
_folderIconBuffer   0x4               main.o
_line_stdin         0x4               main.o
_g_kernel_paged_memory
                    0x4               main.o
_mmFramesSuperBlockStart
                    0x4               main.o
_mouseBMPBuffer     0x4               main.o
_contextES          0x4               x86cont.o
_g_driver_keyboard_initialized
                    0x4               main.o
_rtc                0x4               main.o
_gws_wm_PID         0x4               kgws.o
_bmp_substitute_color
                    0x4               main.o
_window_Conductor   0x4               main.o
_lastBank           0x4               main.o
_e1000_interrupt_flag
                    0x4               main.o
_gws_wm_status      0x4               kgws.o
_hddStatus          0x4               hdd.o
_g_mm_system_type   0x4               main.o
_g_kernel_lfb       0x4               main.o
_PciDrivers         0x4               main.o
_system_message_queue
                    0x80              main.o
_usession_Conductor2
                    0x4               main.o
_terminal_window    0x4               main.o
_mainButton2        0x4               main.o
_CurrentScreen      0x4               main.o
_sys_time_ticks_total
                    0x4               main.o
_save_client_rect_width
                    0x4               window.o
_ttyLineCounter     0x4               main.o
_g_char_attrib      0x4               main.o
_HumilityColorScheme
                    0x4               main.o
_memorysizeUsed     0x4               main.o
_window_mouse_over  0x4               main.o
_file_tmp           0x4               main.o
_ctrl_status        0x4               main.o
_e1000_irq_count    0x4               main.o
_g_module_shell_initialized
                    0x4               main.o
_g_next_proc        0x4               main.o
_semaphoreList      0x84              main.o
_file_CWE           0x4               main.o
_winkey_status      0x4               main.o
_FrontBufferInfo    0x4               main.o
_g_current_list     0x4               main.o
_savedmouseoverwindowX
                    0x4               main.o
_line_stdout        0x4               main.o
_g_module_mm_initialized
                    0x4               main.o
_contextSS          0x4               x86cont.o
_g_cursor_height    0x4               main.o
_current_workingdiretory_string
                    0x20              main.o
_gShellPageDirectoryAddress
                    0x4               main.o
_volumeList         0x1000            main.o
_TERMINAL           0x260             main.o
_g_nova_mensagem    0x4               main.o
_current_menu       0x4               main.o
_pmiCurrent         0x4               main.o
_Pci                0x4               main.o
_timerLine          0x4               timer.o
_g_cursor_x         0x4               main.o
_mouse_buttom_2     0x4               main.o
_CurrentUser        0x4               main.o

Memory Configuration

Name             Origin             Length             Attributes
*default*        0x0000000000000000 0xffffffffffffffff

Linker script and memory map


.text           0x00000000c0001000    0x2b000
                0x00000000c0001000                _code_begin = .
 *(.head_x86)
 .head_x86      0x00000000c0001000      0x1b0 head.o
                0x00000000c0001000                _kernel_begin
                0x00000000c0001188                _SavedBootBlock
                0x00000000c000118c                _SavedLFB
                0x00000000c0001190                _SavedX
                0x00000000c0001194                _SavedY
                0x00000000c0001198                _SavedBPP
                0x00000000c000119c                _SavedBootMode
                0x00000000c00011a0                _kArg1
                0x00000000c00011a4                _kArg2
                0x00000000c00011a8                _kArg3
                0x00000000c00011ac                _kArg4
 *(.text)
 .text          0x00000000c00011b0     0x5f08 head.o
                0x00000000c00011b0                _gdt
                0x00000000c00011e8                _end_gdt
                0x00000000c00011ec                _GDT_register
                0x00000000c00011f2                _idt
                0x00000000c00019f6                _IDT_register
                0x00000000c00019fc                _KernelStatus
                0x00000000c0001a00                _task_switch_salva_esp
                0x00000000c0005b30                _setup_system_interrupt
                0x00000000c0005df1                _asm_nic_create_new_idt_entry
                0x00000000c0005e04                _do_executa_new_task
                0x00000000c0005e4c                _test_cpuid_support
                0x00000000c0005e6b                _get_page_dir
                0x00000000c0005e6f                _set_page_dir
                0x00000000c0005e73                _get_page_fault_adr
                0x00000000c0005e77                __die
                0x00000000c0005e7b                _halt
                0x00000000c0005e7d                _idle_halt_cpu
                0x00000000c0005e81                _refresh_tlb
                0x00000000c0005e8a                _arch_pause
                0x00000000c0005e8d                _interrupts_enable
                0x00000000c0005e8f                _interrupts_disable
                0x00000000c0005ec2                _setup_idt_vector
                0x00000000c0005f03                _enable_pse
                0x00000000c0005f0f                _asm_shut_down
                0x00000000c0005f13                _asm_reboot
                0x00000000c0005f20                _clear_nt_flag
                0x00000000c0005f32                _irq0
                0x00000000c0006041                _dispatch_context
                0x00000000c00060af                _timer_test
                0x00000000c00068c5                _irq1
                0x00000000c00068ed                _irq3
                0x00000000c00068f6                _irq4
                0x00000000c00068ff                _irq7
                0x00000000c0006908                _irq8
                0x00000000c0006918                _irq9
                0x00000000c0006923                _irq10
                0x00000000c000692e                _nic_handler
                0x00000000c000693e                _irq11
                0x00000000c0006949                _irq12
                0x00000000c0006967                _irq13
                0x00000000c0006974                _irq14
                0x00000000c0006986                _irq15
                0x00000000c00069a3                _fault_N0
                0x00000000c00069b2                _fault_N1
                0x00000000c00069c1                _fault_N2
                0x00000000c00069d0                _fault_N3
                0x00000000c00069df                _fault_N4
                0x00000000c00069ee                _fault_N5
                0x00000000c00069fd                _fault_INTRUCAO_INVALIDA
                0x00000000c0006a0c                _fault_N7
                0x00000000c0006a1b                _fault_DOUBLE
                0x00000000c0006a2a                _fault_N9
                0x00000000c0006a39                _fault_N10
                0x00000000c0006a48                _fault_N11
                0x00000000c0006a57                _fault_STACK
                0x00000000c0006a66                _fault_GP
                0x00000000c0006a75                _fault_N14
                0x00000000c0006a84                _fault_N15
                0x00000000c0006a93                _fault_N16
                0x00000000c0006aa2                _fault_N17
                0x00000000c0006ab1                _fault_N18
                0x00000000c0006ac0                _fault_N19
                0x00000000c0006acf                _fault_N20
                0x00000000c0006ade                _fault_N21
                0x00000000c0006aea                _fault_N22
                0x00000000c0006af6                _fault_N23
                0x00000000c0006b02                _fault_N24
                0x00000000c0006b0e                _fault_N25
                0x00000000c0006b1a                _fault_N26
                0x00000000c0006b26                _fault_N27
                0x00000000c0006b32                _fault_N28
                0x00000000c0006b3e                _fault_N29
                0x00000000c0006b4a                _fault_N30
                0x00000000c0006b56                _fault_N31
                0x00000000c0006bf3                _hd_buffer
                0x00000000c0006bf7                _hd_lba
                0x00000000c0006bfb                _turn_task_switch_on
                0x00000000c0006c16                _turn_task_switch_off
                0x00000000c0006c31                _os_read_sector
                0x00000000c0006c4a                _os_write_sector
                0x00000000c0006d37                _reset_ide0
                0x00000000c0006da0                _hour
                0x00000000c0006da1                _minute
                0x00000000c0006da2                _second
                0x00000000c0006da3                _CMOS_GET_DATE
                0x00000000c0006de7                _int48
                0x00000000c0006dea                _int49
                0x00000000c0006ded                _int50
                0x00000000c0006df0                _int51
                0x00000000c0006df3                _int52
                0x00000000c0006df6                _int53
                0x00000000c0006df9                _int54
                0x00000000c0006dfc                _int100
                0x00000000c0006dff                _int128
                0x00000000c0006e29                _int129
                0x00000000c0006e64                _int201
                0x00000000c0006e67                _int213
                0x00000000c0006e6a                _int216
                0x00000000c0006f30                _um_buffer_putpixel
                0x00000000c0006f34                _swlib_backbuffer_putpixel
                0x00000000c0006f36                _swlib_lfb_putpixel
                0x00000000c0006f3b                _gui_buffer_putpixel
                0x00000000c0006fc5                _gui_buffer_putpixel2
                0x00000000c000704f                _background
                0x00000000c0007096                _asm_refresh_screen
 .text          0x00000000c00070b8      0x12d main.o
                0x00000000c00070b8                _kernel_main
 .text          0x00000000c00071e5      0x95c x86main.o
                0x00000000c00071f1                _x86mainStartFirstThread
                0x00000000c0007417                _x86StartInit
                0x00000000c0007555                _x86StartGramadoXServer
                0x00000000c0007889                _x86main
 .text          0x00000000c0007b41      0x256 pipe.o
                0x00000000c0007b41                _sys_pipe
                0x00000000c0007d83                _sys_read_pipe
                0x00000000c0007d8d                _sys_write_pipe
 .text          0x00000000c0007d97       0x89 socket.o
                0x00000000c0007d97                _socket
                0x00000000c0007db4                _socket_services
 .text          0x00000000c0007e20      0x2ac cedge.o
                0x00000000c0007e20                __outbyte
                0x00000000c0007f17                _outbyte
 .text          0x00000000c00080cc        0x0 ctype.o
 .text          0x00000000c00080cc     0x11af stdio.o
                0x00000000c00080cc                _fclose
                0x00000000c000813a                _fopen
                0x00000000c000826b                _fread
                0x00000000c0008275                _fwrite
                0x00000000c000827f                _fflush
                0x00000000c0008313                _scroll_screen_rect
                0x00000000c0008421                _scroll
                0x00000000c00084a5                _kclear
                0x00000000c00084f5                _kclearClientArea
                0x00000000c000850b                _kprint
                0x00000000c00088d6                _printf
                0x00000000c00088f3                _puts
                0x00000000c000890e                _panic
                0x00000000c0008941                _sprintf
                0x00000000c0008960                _fprintf
                0x00000000c0008995                _fputs
                0x00000000c0008a10                _ungetc
                0x00000000c0008a4a                _ftell
                0x00000000c0008a6c                _fileno
                0x00000000c0008a84                _fgetc
                0x00000000c0008b3a                _feof
                0x00000000c0008b79                _ferror
                0x00000000c0008b94                _fseek
                0x00000000c0008c04                _fputc
                0x00000000c0008c56                _fscanf
                0x00000000c0008c73                _rewind
                0x00000000c0008ce5                _putchar
                0x00000000c0008cfe                _input
                0x00000000c0008e8e                _stdioInitialize
                0x00000000c00091be                _REFRESH_STREAM
 .text          0x00000000c000927b       0x78 stdlib.o
                0x00000000c000927b                _rand
                0x00000000c0009298                _malloc
                0x00000000c00092d4                _free
 .text          0x00000000c00092f3      0x51f string.o
                0x00000000c00092f3                _strcmp
                0x00000000c0009358                _strncmp
                0x00000000c00093bb                _str_cmp
                0x00000000c0009438                _memcpy
                0x00000000c0009475                _memcpy32
                0x00000000c00094b1                _strcpy
                0x00000000c00094e5                _strcat
                0x00000000c0009514                _bcopy
                0x00000000c0009540                _bzero
                0x00000000c0009560                _strlen
                0x00000000c000958e                _memset
                0x00000000c00095d5                _strcspn
                0x00000000c0009674                _strspn
                0x00000000c0009713                _strtok_r
                0x00000000c00097fa                _strtok
 .text          0x00000000c0009812      0x120 unistd.o
                0x00000000c0009812                _open
                0x00000000c00098b7                _close
 .text          0x00000000c0009932        0x6 devmgr.o
                0x00000000c0009932                _init_device_manager
 .text          0x00000000c0009938     0x142f gde_serv.o
                0x00000000c0009938                _gde_services
                0x00000000c000a9bc                _serviceCreateWindow
                0x00000000c000ab3f                _servicesPutChar
                0x00000000c000ab56                _services_send_message_to_thread
                0x00000000c000ac55                _services_send_message_to_process
 .text          0x00000000c000ad67      0x19e debug.o
                0x00000000c000ad67                _debug_check_inicialization
                0x00000000c000ae13                _debug_check_drivers
                0x00000000c000ae25                _debug_breakpoint
                0x00000000c000ae43                _debug_compute_checksum
                0x00000000c000ae73                _debug
                0x00000000c000aec6                _debug_print
 .text          0x00000000c000af05      0x8ba diskvol.o
                0x00000000c000af05                _diskShowCurrentDiskInfo
                0x00000000c000af35                _diskShowDiskInfo
                0x00000000c000b044                _disk_get_disk_handle
                0x00000000c000b069                _disk_get_current_disk_info
                0x00000000c000b073                _disk_init
                0x00000000c000b16f                _init_test_disk
                0x00000000c000b175                _volumeShowCurrentVolumeInfo
                0x00000000c000b1a5                _volumeShowVolumeInfo
                0x00000000c000b2ed                _volume_get_volume_handle
                0x00000000c000b312                _volume_get_current_volume_info
                0x00000000c000b338                _volume_init
                0x00000000c000b516                _get_ide_disk_info
                0x00000000c000b5c5                _show_ideports_info
 .text          0x00000000c000b7bf        0x0 install.o
 .text          0x00000000c000b7bf       0x3a object.o
                0x00000000c000b7bf                _init_object_manager
 .text          0x00000000c000b7f9       0x5b runtime.o
                0x00000000c000b7f9                _init_runtime
                0x00000000c000b81a                _KiInitRuntime
 .text          0x00000000c000b854      0x14a abort.o
                0x00000000c000b854                _systemAbort
                0x00000000c000b862                _KiAbort
                0x00000000c000b870                _abort
 .text          0x00000000c000b99e      0x1da info.o
                0x00000000c000b99e                _KeInformation
                0x00000000c000b9a4                _KiInformation
 .text          0x00000000c000bb78       0x5c io.o
                0x00000000c000bb78                _ioServices
                0x00000000c000bbc2                _ioInit
 .text          0x00000000c000bbd4        0x0 modules.o
 .text          0x00000000c000bbd4       0x51 signal.o
                0x00000000c000bbd4                _signalSend
                0x00000000c000bc11                _signalInit
 .text          0x00000000c000bc25        0xa sm.o
                0x00000000c000bc25                _init_systemserver
 .text          0x00000000c000bc2f      0x661 init.o
                0x00000000c000bc2f                _save_kernel_args
                0x00000000c000bc35                _init_architecture_dependent
                0x00000000c000bcd2                _init_architecture_independent
                0x00000000c000be60                _init_globals
                0x00000000c000bff3                _init
 .text          0x00000000c000c290      0xa68 system.o
                0x00000000c000c290                _set_up_color
                0x00000000c000c29e                _set_up_text_color
                0x00000000c000c2ca                _set_up_cursor
                0x00000000c000c2e0                _get_cursor_x
                0x00000000c000c2ea                _get_cursor_y
                0x00000000c000c2f4                _systemNull
                0x00000000c000c2fe                _systemLinkDriver
                0x00000000c000c320                _systemShowDevicesInfo
                0x00000000c000c3b8                _systemCreateSystemMenuBar
                0x00000000c000c488                _systemSetupVersion
                0x00000000c000c54c                _system_dispatch_to_procedure
                0x00000000c000c57a                _SystemMenu
                0x00000000c000c6d8                _SystemMenuProcedure
                0x00000000c000c735                _systemReboot
                0x00000000c000c787                _systemShutdown
                0x00000000c000c7aa                _systemShutdownViaAPM
                0x00000000c000c7c3                _systemGetSystemMetric
                0x00000000c000c809                _systemGetSystemStatus
                0x00000000c000c83c                _die
                0x00000000c000c866                _systemGetTerminalWindow
                0x00000000c000c870                _systemSetTerminalWindow
                0x00000000c000cad4                _systemSetTerminalRectangle
                0x00000000c000cada                _systemGetSystemMetrics
                0x00000000c000cb42                _newLinkedlist
                0x00000000c000cb7d                _newNode
                0x00000000c000cbaf                _Removing_from_the_beginning
                0x00000000c000cbda                _Removing_from_the_middle
                0x00000000c000cbe0                _Removing_from_the_end
                0x00000000c000cc0c                _systemStartUp
                0x00000000c000ccbb                _systemInit
                0x00000000c000cce8                _systemSystem
 .text          0x00000000c000ccf8      0x34f execve.o
                0x00000000c000ccf8                _executive_gramado_core_init_execve
                0x00000000c000cf8e                _executive_gramado_core_init_execve_exe
                0x00000000c000cfab                _sys_showkernelinfo
                0x00000000c000cfb9                _sys_reboot
                0x00000000c000cfc7                _sys_shutdown
                0x00000000c000cfd5                _init_executive
 .text          0x00000000c000d047       0x15 cpuamd.o
                0x00000000c000d047                _get_cpu_amd_parameters
                0x00000000c000d04d                _init_amd
 .text          0x00000000c000d05c      0x2df portsx86.o
                0x00000000c000d05c                _inportb
                0x00000000c000d071                _outportb
                0x00000000c000d07e                _inportl
                0x00000000c000d092                _outportl
                0x00000000c000d09f                _kinportb
                0x00000000c000d0b4                _koutportb
                0x00000000c000d0c1                _inb
                0x00000000c000d0d6                _outb
                0x00000000c000d0e3                _inport8
                0x00000000c000d0f8                _outport8
                0x00000000c000d105                _inport16
                0x00000000c000d11c                _outport16
                0x00000000c000d12a                _inport32
                0x00000000c000d13e                _outport32
                0x00000000c000d222                _kernelProcessorInPort8
                0x00000000c000d231                _kernelProcessorOutPort8
                0x00000000c000d23e                _kernelProcessorInPort16
                0x00000000c000d24e                _kernelProcessorOutPort16
                0x00000000c000d25c                _kernelProcessorInPort32
                0x00000000c000d26b                _kernelProcessorOutPort32
                0x00000000c000d278                _wait_ns
                0x00000000c000d2a7                _portsx86_IN
                0x00000000c000d2ef                _portsx86_OUT
 .text          0x00000000c000d33b       0x41 syscall.o
                0x00000000c000d33b                _systemcall
                0x00000000c000d35c                _jmp_address
 .text          0x00000000c000d37c      0x7aa x86.o
                0x00000000c000d388                _enable
                0x00000000c000d393                _disable
                0x00000000c000d39e                _farReturn
                0x00000000c000d3a5                _intReturn
                0x00000000c000d3ac                _stopCpu
                0x00000000c000d3b4                _getFlags
                0x00000000c000d3bf                _setFlags
                0x00000000c000d3ca                _Push
                0x00000000c000d3d4                _Pop
                0x00000000c000d3de                _pushRegs
                0x00000000c000d3e5                _popRegs
                0x00000000c000d3ec                _pushFlags
                0x00000000c000d3f3                _popFlags
                0x00000000c000d3fa                _getStackPointer
                0x00000000c000d405                _setStackPointer
                0x00000000c000d410                _cpux86_enable_caches
                0x00000000c000d433                _setgate
                0x00000000c000d52e                _unsetgate
                0x00000000c000d5b8                _setregion
                0x00000000c000d639                _setsegment
                0x00000000c000d761                _setsegmentNR
                0x00000000c000d78d                _init_gdt
                0x00000000c000d99a                _init_intel
                0x00000000c000d9ac                _show_cpu_intel_parameters
 .text          0x00000000c000db26      0x4e1 detect.o
                0x00000000c000db26                _get_cpu_intel_parameters
                0x00000000c000de69                _cpu_get_parameters
                0x00000000c000de76                _KeTestCPU
                0x00000000c000de88                _hal_probe_cpu
                0x00000000c000df3f                _hal_probe_processor_type
 .text          0x00000000c000e007      0x629 hal.o
                0x00000000c000e007                _hal_default_handler
                0x00000000c000e00d                _hal_init_handlers_table
                0x00000000c000e048                _hal_setup_new_handler
                0x00000000c000e05b                _hal_invalidate_handler
                0x00000000c000e06f                _hal_setup_new_vectors_table_entry
                0x00000000c000e082                _hal_init_vectors_table
                0x00000000c000e318                _hal_backbuffer_putpixel
                0x00000000c000e337                _hal_lfb_putpixel
                0x00000000c000e356                _sys_vsync
                0x00000000c000e364                _sys_showpciinfo
                0x00000000c000e371                _hal_hardware_detect
                0x00000000c000e37b                _hal_showpciinfo
                0x00000000c000e388                _init_cpu
                0x00000000c000e442                _hal_set_machine_type
                0x00000000c000e450                _hal_get_machine_type
                0x00000000c000e45a                _hal_init_machine
                0x00000000c000e4ba                _getGdt
                0x00000000c000e4c4                _getIdt
                0x00000000c000e4ce                _hal_idt_register_interrupt
                0x00000000c000e54d                _hal_vsync
                0x00000000c000e55b                _hal_reboot
                0x00000000c000e579                _hal_shutdown
                0x00000000c000e5c5                _init_hal
 .text          0x00000000c000e630      0x530 ahci.o
                0x00000000c000e6a7                _probe_port
                0x00000000c000e77f                _ahciSetupDeviceStructure
                0x00000000c000ea8f                _ahciSATAInitialize
 .text          0x00000000c000eb60     0x13a7 ata.o
                0x00000000c000eb60                _ata_wait
                0x00000000c000eb92                _ata_wait_not_busy
                0x00000000c000ebc0                _ata_wait_busy
                0x00000000c000ebee                _ata_wait_no_drq
                0x00000000c000ec22                _ata_wait_drq
                0x00000000c000ec56                _ata_soft_reset
                0x00000000c000ecaf                _ata_status_read
                0x00000000c000eccb                _ata_cmd_write
                0x00000000c000ed00                _ata_assert_dever
                0x00000000c000eda5                _ide_identify_device
                0x00000000c000f491                _set_ata_addr
                0x00000000c000f4e7                _ide_mass_storage_initialize
                0x00000000c000f5c8                _ide_dev_init
                0x00000000c000f9b8                _nport_ajuste
                0x00000000c000fa10                _ata_pio_read
                0x00000000c000fa35                _ata_pio_write
                0x00000000c000fa5a                _diskATAInitialize
                0x00000000c000fdbd                _show_ide_info
 .text          0x00000000c000ff07      0x19c atadma.o
                0x00000000c000ff07                _ide_dma_data
                0x00000000c000ffdf                _ide_dma_start
                0x00000000c0010019                _ide_dma_stop
                0x00000000c0010084                _ide_dma_read_status
 .text          0x00000000c00100a3       0x44 atainit.o
                0x00000000c00100a3                _diskATADialog
 .text          0x00000000c00100e7      0x12b atairq.o
                0x00000000c00100e7                _diskATAIRQHandler1
                0x00000000c00100f7                _diskATAIRQHandler2
                0x00000000c0010107                _disk_get_ata_irq_invoked
                0x00000000c0010111                _disk_reset_ata_irq_invoked
                0x00000000c0010121                _ata_wait_irq
                0x00000000c0010198                _disk_ata_wait_irq
 .text          0x00000000c0010212      0xadc atapci.o
                0x00000000c0010212                _diskReadPCIConfigAddr
                0x00000000c0010271                _diskWritePCIConfigAddr
                0x00000000c00102d5                _diskPCIScanDevice
                0x00000000c00103f2                _diskATAPCIConfigurationSpace
 .text          0x00000000c0010cee      0x43a hdd.o
                0x00000000c0010d24                _hdd_ata_pio_write
                0x00000000c0010d5a                _hdd_ata_status_read
                0x00000000c0010d88                _hdd_ata_wait_not_busy
                0x00000000c0010dc8                _hdd_ata_cmd_write
                0x00000000c0010e18                _hdd_ata_wait_no_drq
                0x00000000c0010e5e                _pio_rw_sector
                0x00000000c00110c2                _my_read_hd_sector
                0x00000000c00110eb                _my_write_hd_sector
                0x00000000c0011114                _init_hdd
 .text          0x00000000c0011128       0xa6 channel.o
                0x00000000c0011128                _CreateChannel
                0x00000000c0011175                _DestroyChannel
                0x00000000c001118c                _OpenChannel
                0x00000000c00111ad                _CloseChannel
 .text          0x00000000c00111ce      0xc42 network.o
                0x00000000c00111ce                _networkSetstatus
                0x00000000c00111ea                _networkGetStatus
                0x00000000c00111f4                _networkInit
                0x00000000c00112b8                _show_network_info
                0x00000000c001136e                _show_current_nic_info
                0x00000000c0011690                _handle_ipv6
                0x00000000c00116d7                _testNIC
                0x00000000c00117ac                _SendIPV4
                0x00000000c0011b0c                _SendARP
 .text          0x00000000c0011e10     0x113e nicintel.o
                0x00000000c0011e10                _PCIRegisterIRQHandler
                0x00000000c0011e44                _e1000_init_nic
                0x00000000c0012339                _xxxe1000handler
                0x00000000c00127bc                _e1000_setup_irq
                0x00000000c001280e                _e1000_reset_controller
                0x00000000c0012c87                _E1000WriteCommand
                0x00000000c0012caa                _E1000ReadCommand
                0x00000000c0012cc7                _E1000AllocCont
                0x00000000c0012d40                _E1000Send
                0x00000000c0012e80                _send_ipv4_packet
                0x00000000c0012ea5                _nic_i8254x_transmit
                0x00000000c0012ebe                _E1000ReadEEPROM
 .text          0x00000000c0012f4e       0xbc nsocket.o
                0x00000000c0012f4e                _create_socket
                0x00000000c0012fa1                _getSocketIP
                0x00000000c0012fb9                _getSocketPort
                0x00000000c0012fd5                _update_socket
 .text          0x00000000c001300a      0x738 pci.o
                0x00000000c001300a                _KiPciHandler1
                0x00000000c0013014                _KiPciHandler2
                0x00000000c001301e                _KiPciHandler3
                0x00000000c0013028                _KiPciHandler4
                0x00000000c0013032                _pciConfigReadByte
                0x00000000c00130d6                _pciConfigReadWord
                0x00000000c001317d                _pciConfigReadDWord
                0x00000000c0013211                _pciCheckVendor
                0x00000000c001323b                _pciCheckDevice
                0x00000000c0013265                _pciGetClassCode
                0x00000000c001328f                _pciGetSubClass
                0x00000000c00132b9                _pciGetHeaderType
                0x00000000c00132e3                _pciGetBAR
                0x00000000c00133d5                _pciGetInterruptLine
                0x00000000c00133ff                _pciGetInterruptPin
                0x00000000c0013429                _pciHandleDevice
                0x00000000c0013663                _init_pci
 .text          0x00000000c0013742      0x18a pciinfo.o
                0x00000000c0013742                _pciShowDeviceInfo
                0x00000000c00137c2                _pciInfo
 .text          0x00000000c00138cc      0x1e8 pciscan.o
                0x00000000c00138cc                _pci_setup_devices
                0x00000000c00139c8                _scan_pci_device_list
                0x00000000c0013a40                _scan_pci_device_list2
 .text          0x00000000c0013ab4        0xa tty.o
                0x00000000c0013ab4                _ttyInit
 .text          0x00000000c0013abe        0x6 usb.o
                0x00000000c0013abe                _usbInit
 .text          0x00000000c0013ac4      0x20b video.o
                0x00000000c0013ac4                _videoSetupCGAStartAddress
                0x00000000c0013ad2                _videoGetMode
                0x00000000c0013adc                _videoSetMode
                0x00000000c0013ba8                _videoInit
                0x00000000c0013cb1                _videoVideo
 .text          0x00000000c0013ccf       0xb9 vsync.o
                0x00000000c0013ccf                _vsync
                0x00000000c0013d63                _vsync_inb
 .text          0x00000000c0013d88      0x14e screen.o
                0x00000000c0013d88                _screenGetWidth
                0x00000000c0013d92                _screenGetHeight
                0x00000000c0013d9c                _screenSetSize
                0x00000000c0013db2                _refresh_screen
                0x00000000c0013e19                _screenRefresh
                0x00000000c0013e3b                _screenInit
 .text          0x00000000c0013ed6      0x73e xproc.o
                0x00000000c0013ed6                _xxxtestSHELLServer
                0x00000000c0013f63                _xxxtestlibcSTDOUT
                0x00000000c0014040                _xxxtestlibc
                0x00000000c001414b                _procTestF6
                0x00000000c0014191                _system_procedure
                0x00000000c00143bf                _registra_procedimento
                0x00000000c00143da                _SetProcedure
                0x00000000c00143f0                _SendMessage
                0x00000000c001440c                _procedureHelp
                0x00000000c0014412                _procedureLinkDriverTest
                0x00000000c0014452                _procedureMakeTests
                0x00000000c001452e                _procedureWindowWithFocusTest
                0x00000000c00145d7                _procedureGrid
 .text          0x00000000c0014614       0x85 i8042.o
                0x00000000c0014614                _ps2
 .text          0x00000000c0014699       0xeb keyboard.o
                0x00000000c0014699                _abnt2_keyboard_handler
                0x00000000c00146ec                _get_scancode
                0x00000000c0014752                _KiKeyboard
 .text          0x00000000c0014784        0xe mouse.o
                0x00000000c0014784                _mouse_handler
 .text          0x00000000c0014792      0x64c ps2kbd.o
                0x00000000c0014792                _keyboard_read
                0x00000000c00147cb                _keyboard_write
                0x00000000c0014809                _BAT_TEST
                0x00000000c00148c7                _ps2_keyboard_initialize
                0x00000000c0014a6e                _keyboardGetKeyState
                0x00000000c0014b42                _ldisc_init_modifier_keys
                0x00000000c0014b70                _ldisc_init_lock_keys
                0x00000000c0014b94                _keyboardEnable
                0x00000000c0014bc7                _keyboardDisable
                0x00000000c0014bfa                _keyboard_set_leds
                0x00000000c0014c77                _KdGetWindowPointer
                0x00000000c0014caf                _KbGetMessage
                0x00000000c0014cee                _KbGetLongParam1
                0x00000000c0014d19                _KbGetLongParam2
                0x00000000c0014d44                _reboot
                0x00000000c0014d57                _get_alt_status
                0x00000000c0014d61                _get_ctrl_status
                0x00000000c0014d6b                _get_shift_status
                0x00000000c0014d75                _kbdc_wait
                0x00000000c0014dc6                _set_current_keyboard_responder
                0x00000000c0014dd4                _get_current_keyboard_responder
 .text          0x00000000c0014dde      0xd1b ps2mouse.o
                0x00000000c0014dde                _mouse_write
                0x00000000c0014e2b                _mouse_read
                0x00000000c0014e4d                _MOUSE_BAT_TEST
                0x00000000c0014f06                _mouse_install
                0x00000000c0014fc5                _kernelPS2MouseDriverReadData
                0x00000000c0014fcb                _load_mouse_bmp
                0x00000000c0015082                _set_current_mouse_responder
                0x00000000c0015090                _get_current_mouse_responder
                0x00000000c001509a                _update_mouse
                0x00000000c0015154                _mouseHandler
                0x00000000c001594b                _ps2_mouse_initialize
                0x00000000c0015a1d                _ps2_mouse_globals_initialize
 .text          0x00000000c0015af9      0x6d6 ldisc.o
                0x00000000c0015af9                _LINE_DISCIPLINE
                0x00000000c0015c1a                _KEYBOARD_LINE_DISCIPLINE
                0x00000000c00160dd                _MOUSE_LINE_DISCIPLINE
                0x00000000c001612a                _initialize_system_message_queue
                0x00000000c00161c5                _ldisc_dialog
 .text          0x00000000c00161cf        0x0 apic.o
 .text          0x00000000c00161cf        0x0 pic.o
 .text          0x00000000c00161cf      0x3c3 rtc.o
                0x00000000c00161cf                _KiRtcIrq
                0x00000000c00161dd                _rtc_irq
                0x00000000c0016233                _read_cmos_bcd
                0x00000000c00162a0                _get_time
                0x00000000c00162eb                _get_date
                0x00000000c001633c                _rtcGetExtendedMemory
                0x00000000c001639d                _rtcGetBaseMemory
                0x00000000c00163fe                _get_cmos_info
                0x00000000c0016566                _init_clock
 .text          0x00000000c0016592       0xe5 serial.o
                0x00000000c0016592                _serial_write_char
                0x00000000c00165d1                _init_serial
 .text          0x00000000c0016677      0x6c6 timer.o
                0x00000000c0016677                _KiTimer
                0x00000000c0016685                _timerEnableTextCursor
                0x00000000c0016695                _timerDisableTextCursor
                0x00000000c00166a5                _timer
                0x00000000c00168da                _new_timer_id
                0x00000000c0016912                _create_timer
                0x00000000c0016b4a                _timerInit8253
                0x00000000c0016baf                _set_quantum
                0x00000000c0016bbd                _get_quantum
                0x00000000c0016bc7                _set_current_quantum
                0x00000000c0016bd5                _get_current_quantum
                0x00000000c0016bdf                _set_next_quantum
                0x00000000c0016bed                _get_next_quantum
                0x00000000c0016bf7                _now
                0x00000000c0016c04                _get_systime_hz
                0x00000000c0016c0e                _get_systime_ms
                0x00000000c0016c18                _get_systime_totalticks
                0x00000000c0016c22                _get_systime_info
                0x00000000c0016c53                _sleep
                0x00000000c0016c71                _set_timeout
                0x00000000c0016c7f                _get_timeout
                0x00000000c0016c89                _timerTimer
                0x00000000c0016cb1                _timerInit
 .text          0x00000000c0016d3d       0xdf cf.o
                0x00000000c0016d3d                _fs_create_dir
                0x00000000c0016d47                _fs_create_file
                0x00000000c0016e10                _fs_create_entry
                0x00000000c0016e16                _fs_create_name
 .text          0x00000000c0016e1c        0xc format.o
                0x00000000c0016e1c                _fs_delete_entry
                0x00000000c0016e22                _fsClearFat
 .text          0x00000000c0016e28     0x10f0 fs.o
                0x00000000c0016e28                _fsCheckELFFile
                0x00000000c0016e83                _fsCheckPEFile
                0x00000000c0016ec4                _fsListFiles
                0x00000000c0016f30                _fsList
                0x00000000c0016fb1                _fsFAT16ListFiles
                0x00000000c001703c                _KeLoadFile
                0x00000000c0017046                _get_file
                0x00000000c0017062                _set_file
                0x00000000c0017086                _fs_test_fat_vector
                0x00000000c001708c                _fs_get_fat_entry
                0x00000000c0017096                _fs_set_fat_entry
                0x00000000c001709c                _fs_set_entry
                0x00000000c00170a2                _fs_get_entry
                0x00000000c00170a8                _fs_show_dir_entry
                0x00000000c00170ae                _fs_show_dir
                0x00000000c00170b4                _fs_check_cluster
                0x00000000c00170be                _fs_check_fat
                0x00000000c00170c8                _fs_show_entry
                0x00000000c00170ce                _fs_get_entry_status
                0x00000000c00170d8                _fs_set_entry_status
                0x00000000c00170de                _fsCheckMbrFile
                0x00000000c0017252                _fsCheckVbrFile
                0x00000000c00172b8                _MountShortFileName
                0x00000000c001739e                _set_spc
                0x00000000c00173ac                _get_spc
                0x00000000c00173b6                _get_filesystem_type
                0x00000000c00173c0                _set_filesystem_type
                0x00000000c00173ce                _fs_init_fat
                0x00000000c001743f                _fs_init_structures
                0x00000000c0017530                _fsInit
                0x00000000c0017720                _fsInitializeWorkingDiretoryString
                0x00000000c001782a                _fsInitTargetDir
                0x00000000c001783a                _fs_initialize_process_pwd
                0x00000000c001790a                _fs_print_process_pwd
                0x00000000c00179c9                _fsUpdateWorkingDiretoryString
                0x00000000c0017aff                _fs_pathname_backup
                0x00000000c0017c43                _sys_read_file
                0x00000000c0017c85                _sys_read_file2
                0x00000000c0017e16                _fsLoadFileFromCurrentTargetDir
                0x00000000c0017ecd                _sys_write_file
 .text          0x00000000c0017f18      0x626 read.o
                0x00000000c0017f18                _read_fntos
                0x00000000c0018042                _fatClustToSect
                0x00000000c001806a                _fatLoadCluster
                0x00000000c00180a6                _read_lba
                0x00000000c00180dc                _fsLoadFile
                0x00000000c00182eb                _fs_load_fatEx
                0x00000000c001833a                _load_directory
                0x00000000c0018384                _fs_load_rootdir
                0x00000000c00183a4                _fs_load_rootdirEx
                0x00000000c00183b2                _fs_load_dir
                0x00000000c00183b8                _fsGetFileSize
 .text          0x00000000c001853e      0x2f3 search.o
                0x00000000c001853e                _KiSearchFile
                0x00000000c0018645                _fsSearchFile
                0x00000000c001873d                _fs_find_empty_entry
                0x00000000c0018747                _findEmptyDirectoryEntry
                0x00000000c00187a0                _fs_find_n_empty_entries
                0x00000000c001881b                _fsSearchFileName
 .text          0x00000000c0018831      0x63b write.o
                0x00000000c0018831                _write_fntos
                0x00000000c001895b                _fatWriteCluster
                0x00000000c0018997                _write_lba
                0x00000000c0018a04                _fsSaveFile
                0x00000000c0018e5a                _fs_save_rootdir
                0x00000000c0018e60                _fs_save_dir
                0x00000000c0018e66                _fs_save_entry_on_root
 .text          0x00000000c0018e6c       0xf2 bg.o
                0x00000000c0018e6c                _backgroundDraw
                0x00000000c0018ec2                _backgroundSetColor
                0x00000000c0018ec8                _backgroundRedraw
                0x00000000c0018ef9                _backgroundBackground
                0x00000000c0018f13                _backgroundInit
 .text          0x00000000c0018f5e      0x99d bmp.o
                0x00000000c0018f5e                _bmpDirectDisplayBMP
                0x00000000c00193e6                _bmpDisplayBMP
                0x00000000c0019869                _bmpDisplayMousePointerBMP
                0x00000000c00198b2                _bmpDisplayCursorBMP
 .text          0x00000000c00198fb      0x5f1 button.o
                0x00000000c00198fb                _update_button
                0x00000000c0019981                _draw_button
                0x00000000c0019ca2                _redraw_button
 .text          0x00000000c0019eec      0x2f5 char.o
                0x00000000c0019eec                _my_buffer_char_blt
                0x00000000c0019f09                _set_char_width
                0x00000000c0019f17                _set_char_height
                0x00000000c0019f25                _get_char_width
                0x00000000c0019f2f                _get_char_height
                0x00000000c0019f39                _drawchar_transparent
                0x00000000c001a08a                _draw_char
 .text          0x00000000c001a1e1     0x1208 createw.o
                0x00000000c001a1e1                _CreateWindow
 .text          0x00000000c001b3e9       0xd4 dtext.o
                0x00000000c001b3e9                _draw_text
                0x00000000c001b44f                _draw_string
 .text          0x00000000c001b4bd       0x91 font.o
                0x00000000c001b4bd                _gwsSetCurrentFontAddress
                0x00000000c001b4cb                _gwsGetCurrentFontAddress
                0x00000000c001b4d5                _gwsInstallFont
 .text          0x00000000c001b54e      0x321 grid.o
                0x00000000c001b54e                _InitializeGrid
                0x00000000c001b7b9                _CreateGrid
                0x00000000c001b830                _grid
 .text          0x00000000c001b86f       0xc2 line.o
                0x00000000c001b86f                _my_buffer_horizontal_line
                0x00000000c001b899                _refresh_horizontal_line
 .text          0x00000000c001b931      0x8ef menu.o
                0x00000000c001b931                _create_menu
                0x00000000c001bb7c                _create_menu_item
                0x00000000c001bdbf                _set_current_menu
                0x00000000c001bdd8                _get_current_menu
                0x00000000c001bdf9                _RegisterMenu
                0x00000000c001be66                _initmenuArray
                0x00000000c001bf89                _ControlMenu
                0x00000000c001bf9f                _MainMenu
                0x00000000c001c093                _MainMenuProcedure
                0x00000000c001c1d4                _init_menus
 .text          0x00000000c001c220      0x88b menubar.o
                0x00000000c001c220                _create_menubar
                0x00000000c001c3ac                _create_menubar_item
                0x00000000c001c6ad                _select_menubar_item
                0x00000000c001c6e8                _unselect_menubar_item
                0x00000000c001c723                _redraw_menubar_item
                0x00000000c001c8a6                _get_menubar_selected_item
                0x00000000c001c8b9                _menubarX
                0x00000000c001c9e4                _MenuBarProcedure
 .text          0x00000000c001caab      0x28f pixel.o
                0x00000000c001caab                _pixelPutPixelWindowBuffer
                0x00000000c001cab1                _pixelPutPixelDedicatedWindowBuffer
                0x00000000c001cab7                _backbuffer_putpixel
                0x00000000c001cb89                _lfb_putpixel
                0x00000000c001cc5b                _get_pixel
                0x00000000c001ccc3                _refresh_pixel
 .text          0x00000000c001cd3a      0x76c rect.o
                0x00000000c001cd3a                _rectStrCopyMemory32
                0x00000000c001cd9b                _drawDataRectangle
                0x00000000c001ce38                _getClientAreaRect
                0x00000000c001ce42                _setClientAreaRect
                0x00000000c001ce82                _refresh_rectangle
                0x00000000c001cfa4                _refresh_rectangle2
                0x00000000c001d0dc                _initialize_saved_rect
                0x00000000c001d1ba                _save_rect
                0x00000000c001d330                _show_saved_rect
 .text          0x00000000c001d4a6      0x1da sbar.o
                0x00000000c001d4a6                _StatusBar
 .text          0x00000000c001d680      0x187 toolbar.o
                0x00000000c001d680                _ToolBar
 .text          0x00000000c001d807     0x29af window.o
                0x00000000c001d807                _save_window
                0x00000000c001d863                _show_saved_window
                0x00000000c001d8bf                _show_window_rect
                0x00000000c001d93e                _windowKillTimer
                0x00000000c001d981                _windowSetTimer
                0x00000000c001d9c5                _windowGetWindowID
                0x00000000c001d9f5                _windowGetMainWindowDescriptor
                0x00000000c001da25                _GetParentWindow
                0x00000000c001da40                _GetWindowDesktop
                0x00000000c001da5b                _windowSetUpColorScheme
                0x00000000c001dc8d                _windowSelectColorScheme
                0x00000000c001dda7                _windowShowWWFMessageBuffers
                0x00000000c001ddff                _windowSendMessage
                0x00000000c001de83                _windowGetHandleWindow
                0x00000000c001de8d                _windowGetMessage
                0x00000000c001df07                _windowGetLong1
                0x00000000c001df35                _windowGetLong2
                0x00000000c001df3f                _window_getch
                0x00000000c001dffc                _windowCreateDedicatedBuffer
                0x00000000c001e068                _windowLock
                0x00000000c001e083                _windowUnlock
                0x00000000c001e09e                _set_current_window
                0x00000000c001e0bf                _get_current_window
                0x00000000c001e0c9                _RegisterWindow
                0x00000000c001e15a                _windowShowWindowList
                0x00000000c001e394                _redraw_window
                0x00000000c001ee69                _redraw_screen
                0x00000000c001ef83                _resize_window
                0x00000000c001efac                _replace_window
                0x00000000c001efd5                _is_window_full
                0x00000000c001f000                _is_window_maximized
                0x00000000c001f02b                _is_window_minimized
                0x00000000c001f056                _CloseWindow
                0x00000000c001f143                _DestroyWindow
                0x00000000c001f15a                _get_active_window
                0x00000000c001f164                _set_active_window
                0x00000000c001f16a                _change_active_window
                0x00000000c001f180                _show_active_window
                0x00000000c001f19f                _show_window_with_focus
                0x00000000c001f1be                _CloseActiveWindow
                0x00000000c001f23b                _windowBlockFocus
                0x00000000c001f24b                _windowUnblockFocus
                0x00000000c001f25b                _SetFocus
                0x00000000c001f539                _GetFocus
                0x00000000c001f55a                _windowGetForegroundWindow
                0x00000000c001f56b                _windowSetForegroundWindow
                0x00000000c001f5b2                _windowSwitchFocus
                0x00000000c001f69c                _KillFocus
                0x00000000c001f749                _MinimizeWindow
                0x00000000c001f7aa                _MaximizeWindow
                0x00000000c001f872                _init_window_manager
                0x00000000c001f8c9                _init_windows
                0x00000000c001fad8                _get_zorder
                0x00000000c001faf3                _getTopWindow
                0x00000000c001fb11                _get_top_window
                0x00000000c001fb1b                _set_top_window
                0x00000000c001fb29                _closeActiveWindow
                0x00000000c001fb5d                _z_order_get_free_slot
                0x00000000c001fbc6                _windowLoadGramadoIcons
                0x00000000c001fdea                _windowScan
                0x00000000c001fec2                _windowUpdateWindow
                0x00000000c001fedd                _windowSwitchFullScreen
                0x00000000c00201ac                _scroll_client_window
 .text          0x00000000c00201b6       0xe6 logoff.o
                0x00000000c00201b6                _StartLogoff
                0x00000000c00201d3                _init_logoff
 .text          0x00000000c002029c      0x7af logon.o
                0x00000000c002029c                _create_logon
                0x00000000c0020532                _ExitLogon
                0x00000000c0020572                _SetLogonParameters
                0x00000000c002061d                _logon_create_screen
                0x00000000c0020706                _logon_create_background
                0x00000000c00207cd                _logon_create_mainwindow
                0x00000000c00208e0                _logon_create_logo
                0x00000000c00208e6                _logon_create_taskbar
                0x00000000c00208ec                _logon_create_controlmenu
                0x00000000c00208f2                _logon_create_infobox
                0x00000000c00208f8                _logon_create_messagebox
                0x00000000c00208fe                _logon_create_debug
                0x00000000c0020904                _logon_create_navigationbar
                0x00000000c002090a                _logon_create_grid
                0x00000000c0020910                _logon_create_developer_screen
                0x00000000c0020916                _LogonProcedure
                0x00000000c002096a                _init_logon
 .text          0x00000000c0020a4b        0x0 input.o
 .text          0x00000000c0020a4b       0x8d output.o
                0x00000000c0020a4b                _terminalPutChar
 .text          0x00000000c0020ad8        0xa terminal.o
                0x00000000c0020ad8                _terminal_dialog
 .text          0x00000000c0020ae2      0x3c4 desktop.o
                0x00000000c0020ae2                _RegisterDesktop
                0x00000000c0020b2f                _set_current_desktop
                0x00000000c0020b48                _get_current_desktop
                0x00000000c0020b73                _get_current_desktop_id
                0x00000000c0020b7d                _init_desktop_list
                0x00000000c0020ba7                _CreateDesktop
                0x00000000c0020c3e                _set_current_menuwindow
                0x00000000c0020c5b                _set_current_foreground
                0x00000000c0020c78                _set_current_messagewindow
                0x00000000c0020c95                _set_current_traywindow
                0x00000000c0020cb2                _set_current_tooltipwindow
                0x00000000c0020ccf                _change_foreground
                0x00000000c0020d1a                _set_current_sysMenu
                0x00000000c0020d37                _set_current_dialogsysMenu
                0x00000000c0020d54                _set_current_menuHScroll
                0x00000000c0020d71                _set_current_menuVScroll
                0x00000000c0020d8e                _init_desktop
 .text          0x00000000c0020ea6      0x1b5 room.o
                0x00000000c0020ea6                _get_current_room
                0x00000000c0020ec7                _set_current_room
                0x00000000c0020ee0                _CreateRoom
                0x00000000c0020f77                _RegisterRoom
                0x00000000c0020fc4                _init_room_list
                0x00000000c0020fee                _init_room_manager
 .text          0x00000000c002105b      0x2fa userenv.o
                0x00000000c002105b                _startUserEnvironment
                0x00000000c0021092                _ShowUserInfo
                0x00000000c00210f1                _config_user
                0x00000000c0021101                _CreateUser
                0x00000000c00211ce                _SetCurrentUserId
                0x00000000c00211fc                _GetCurrentUserId
                0x00000000c0021206                _SetCurrentGroupId
                0x00000000c0021234                _GetCurrentGroupId
                0x00000000c002123e                _UpdateUserInfo
                0x00000000c0021294                _init_user_info
                0x00000000c0021341                _init_user_environment_manager
 .text          0x00000000c0021355      0x23d usession.o
                0x00000000c0021355                _get_current_user_session
                0x00000000c0021380                _CreateUserSession
                0x00000000c002144b                _open_user_session
                0x00000000c0021486                _close_user_session
                0x00000000c00214f1                _init_user_session
 .text          0x00000000c0021592      0xc82 kgws.o
                0x00000000c0021592                _gwsOpen
                0x00000000c00215a6                _gwsClose
                0x00000000c00215ba                _gwsRegisterWindowManager
                0x00000000c0021605                _create_gui
                0x00000000c00218be                _SetGuiParameters
                0x00000000c0021957                _gui_create_screen
                0x00000000c0021a10                _gui_create_background
                0x00000000c0021aea                _gui_create_taskbar
                0x00000000c0021bbe                _gui_create_mainwindow
                0x00000000c0021d00                _gui_create_logo
                0x00000000c0021d06                _gui_create_controlmenu
                0x00000000c0021d0c                _gui_create_infobox
                0x00000000c0021d2a                _gui_create_messagebox
                0x00000000c0021d4b                _gui_create_debug
                0x00000000c0021d6c                _gui_create_navigationbar
                0x00000000c0021d72                _gui_create_grid
                0x00000000c0021d90                _guiGetScreenWindow
                0x00000000c0021dad                _guiGetDeveloperScreenWindow
                0x00000000c0021dca                _guiGetBackgroundWindow
                0x00000000c0021de7                _guiGetLogoWindow
                0x00000000c0021e04                _guiGetDesktopWindow
                0x00000000c0021e21                _guiGetTaskbarWindow
                0x00000000c0021e3e                _guiGetMainWindow
                0x00000000c0021e5b                _guiGetStatusbarWindow
                0x00000000c0021e78                _guiGetGridWindow
                0x00000000c0021e95                _guiGetMenuWindow
                0x00000000c0021eb2                _guiGetInfoboxWindow
                0x00000000c0021ecf                _guiGetTooltipWindow
                0x00000000c0021eef                _guiGetMessageboxWindow
                0x00000000c0021f0f                _guiGetDialogboxWindow
                0x00000000c0021f2f                _guiGetDebugWindow
                0x00000000c0021f4f                _guiGetMbhWindowWindow
                0x00000000c0021f6f                _guiGetTopbarWindow
                0x00000000c0021f8f                _guiGetNavigationbarWindow
                0x00000000c0021faf                _guiGetShellWindowWindow
                0x00000000c0021fcf                _guiGetShellClientWindowWindow
                0x00000000c0021fef                _guiSetUpMainWindow
                0x00000000c002208a                _init_gui
                0x00000000c00220de                _kgws_mouse_dialog
                0x00000000c002220a                _init_gramado
 .text          0x00000000c0022214      0x25c vfs.o
                0x00000000c0022214                _vfsInit
                0x00000000c00223ae                _vfs_show_handle_list
                0x00000000c00223fe                _vfsShowVFSInfo
                0x00000000c0022404                _vfsListFiles
 .text          0x00000000c0022470      0x49a x86cont.o
                0x00000000c002247c                _save_current_context
                0x00000000c002262f                _restore_current_context
                0x00000000c00227c2                _contextCheckThreadRing0Context
                0x00000000c00227cc                _contextCheckThreadRing3Context
                0x00000000c00228d2                _KiCheckTaskContext
                0x00000000c00228e8                _KiSaveCurrentContext
                0x00000000c00228f6                _KiRestoreCurrentContext
                0x00000000c0022904                _save_context_of_new_task
 .text          0x00000000c002290a      0x222 x86fault.o
                0x00000000c002290a                _faults
                0x00000000c0022acb                _KiCpuFaults
                0x00000000c0022ae2                _do_pagefault
 .text          0x00000000c0022b2c      0x16a x86start.o
                0x00000000c0022b2c                _start_task
                0x00000000c0022b4c                _switch_to_user_mode
                0x00000000c0022b65                _executa_tarefa
                0x00000000c0022c4d                _KiSwitchToUserMode
                0x00000000c0022c5b                _KiExecutaTarefa
                0x00000000c0022c65                _KiInitTask
                0x00000000c0022c88                _KiInitTasks
 .text          0x00000000c0022c96      0x86e dispatch.o
                0x00000000c0022c96                _dispatcher
                0x00000000c0022da9                _readyDispatcher
                0x00000000c0022e1a                _syscoopDispatcher
                0x00000000c0022eb7                _usercoopDispatcher
                0x00000000c0022f54                _sysconcDispatcher
                0x00000000c0022ff1                _userconcDispatcher
                0x00000000c002308e                _systemDispatcher
                0x00000000c0023098                _idleDispatcher
                0x00000000c00230a2                _periodicDispatcher
                0x00000000c00230ac                _rrDispatcher
                0x00000000c00230b6                _realtimeDispatcher
                0x00000000c0023123                _dispatch_Default
                0x00000000c00232e1                _dispatch_thread2
                0x00000000c0023326                _dispatch_thread
                0x00000000c00233a7                _init_dispatcher
                0x00000000c0023450                _IncrementDispatcherCount
 .text          0x00000000c0023504        0x0 pheap.o
 .text          0x00000000c0023504     0x10ad process.o
                0x00000000c0023504                _do_fork_process
                0x00000000c0023653                _processObject
                0x00000000c002368c                _getNewPID
                0x00000000c00236c7                _processTesting
                0x00000000c002370d                _processSendSignal
                0x00000000c002373d                _processCopyMemory
                0x00000000c0023849                _processCopyProcess
                0x00000000c0023b6f                _create_process
                0x00000000c0023f16                _CloseAllProcesses
                0x00000000c0023f82                _KeSaveCurrentContext
                0x00000000c0023f88                _KeRestoreCurrentContext
                0x00000000c0023f8e                _KeCpuFaults
                0x00000000c0023fa5                _KeSpawnTask
                0x00000000c0023fbc                _KeSelectNextThread
                0x00000000c0023fd2                _KeCheckTaskContext
                0x00000000c0023fe8                _KeExecProcess
                0x00000000c0023ff2                _KeDispatchProcess
                0x00000000c0023ff8                _KeDoProcessReady
                0x00000000c0023ffe                _KeDoProcessRunning
                0x00000000c0024004                _KeDoProcessSleeping
                0x00000000c002400a                _KeDoProcessZombie
                0x00000000c0024010                _KeDoProcessDead
                0x00000000c0024016                _KeStartProcess
                0x00000000c002401c                _KeWakeupProcess
                0x00000000c0024022                _KeProcessExit
                0x00000000c0024028                _KeKillProcess
                0x00000000c002402e                _KeNewProcessScheduler
                0x00000000c0024034                _KeSetPriority
                0x00000000c002403e                _KeIncreasePriority
                0x00000000c0024048                _KeSaveContextOfNewTask
                0x00000000c002404e                _KeSetQuantum
                0x00000000c0024054                _KeGetQuantum
                0x00000000c002405e                _KeSetCurrentQuantum
                0x00000000c0024064                _KeGetCurrentQuantum
                0x00000000c002406e                _KeSetNextQuantum
                0x00000000c0024074                _KeGetNextQuantum
                0x00000000c002407e                _KeSetFocus
                0x00000000c0024084                _KeGetFocus
                0x00000000c002408e                _KeShowTasksParameters
                0x00000000c0024094                _KeShowPreemptedTask
                0x00000000c002409a                _show_currentprocess_info
                0x00000000c00241d1                _show_process_information
                0x00000000c00242e1                _SetProcessDirectory
                0x00000000c00242f9                _GetProcessDirectory
                0x00000000c0024314                _GetPageDirValue
                0x00000000c0024321                _init_task
                0x00000000c002432b                _init_tasks
                0x00000000c0024339                _init_processes
                0x00000000c0024384                _exit_process
                0x00000000c00244c9                _get_caller_process_id
                0x00000000c00244d3                _set_caller_process_id
                0x00000000c00244e1                _init_process_manager
                0x00000000c00244ff                _GetProcessHeapStart
                0x00000000c0024558                _GetProcessPageDirectoryAddress
 .text          0x00000000c00245b1     0x105e queue.o
                0x00000000c00245b1                _init_queue
                0x00000000c0024a06                _queue_insert_data
                0x00000000c0024e9e                _queue_insert_head
                0x00000000c002503e                _queue_get_data
                0x00000000c0025311                _show_queue_information
                0x00000000c00253a5                _ScanReadyQueue
                0x00000000c002545e                _feed_ready_queue
 .text          0x00000000c002560f      0x202 spawn.o
                0x00000000c002561b                _KiSpawnTask
                0x00000000c0025660                _spawn_thread
 .text          0x00000000c0025811        0xc tasks.o
                0x00000000c0025811                _task0
                0x00000000c0025817                _task1
 .text          0x00000000c002581d       0x1b theap.o
                0x00000000c002581d                _GetThreadHeapStart
 .text          0x00000000c0025838      0xa35 thread.o
                0x00000000c0025838                _threadCopyThread
                0x00000000c0025b8d                _create_thread
                0x00000000c0025f93                _GetCurrentThreadId
                0x00000000c0025f9d                _GetCurrentThread
                0x00000000c0025fe0                _FindReadyThread
                0x00000000c002603e                _SelectForExecution
                0x00000000c0026070                _GetThreadState
                0x00000000c0026088                _GetThreadType
                0x00000000c00260a0                _show_thread_information
                0x00000000c002613d                _init_threads
                0x00000000c00261be                _thread_getchar
 .text          0x00000000c002626d      0xa63 threadi.o
                0x00000000c002626d                _xxxRing0Idle
                0x00000000c0026291                _KiCreateRing0Idle
                0x00000000c002662e                _fork
                0x00000000c0026638                _KiFork
                0x00000000c0026642                _KiShowPreemptedTask
                0x00000000c0026648                _KiSetTaskStatus
                0x00000000c002665f                _KiGetTaskStatus
                0x00000000c002666c                _KiSaveContextOfNewTask
                0x00000000c0026672                _KiSetQuantum
                0x00000000c0026678                _KiGetQuantum
                0x00000000c0026682                _KiSetCurrentQuantum
                0x00000000c0026688                _KiGetCurrentQuantum
                0x00000000c0026692                _KiSetNextQuantum
                0x00000000c0026698                _KiGetNextQuantum
                0x00000000c00266a2                _KiSetFocus
                0x00000000c00266a8                _KiGetFocus
                0x00000000c00266b2                _KiDebugBreakpoint
                0x00000000c00266b8                _KiShowTasksParameters
                0x00000000c00266be                _KiMostraSlots
                0x00000000c00266cc                _KiMostraSlot
                0x00000000c00266e3                _KiMostraReg
                0x00000000c00266e9                _KiShowThreadList
                0x00000000c00266f7                _mostra_slots
                0x00000000c0026763                _mostra_slot
                0x00000000c002686d                _mostra_reg
                0x00000000c0026978                _set_thread_priority
                0x00000000c00269cf                _SetThreadDirectory
                0x00000000c00269e6                _GetThreadDirectory
                0x00000000c00269fe                _show_preempted_task
                0x00000000c0026a04                _show_tasks_parameters
                0x00000000c0026a0a                _release
                0x00000000c0026a54                _exit_thread
                0x00000000c0026acc                _kill_thread
                0x00000000c0026b8b                _dead_thread_collector
                0x00000000c0026c59                _kill_all_threads
                0x00000000c0026c89                _check_for_dead_thread_collector
 .text          0x00000000c0026cd0      0x655 ts.o
                0x00000000c0026cd0                _KiTaskSwitch
                0x00000000c0026d3e                _task_switch
                0x00000000c00271aa                _taskswitchRR
                0x00000000c00272ed                _set_task_status
                0x00000000c00272fb                _get_task_status
                0x00000000c0027305                _taskswitch_lock
                0x00000000c0027315                _taskswitch_unlock
 .text          0x00000000c0027325       0x1b tstack.o
                0x00000000c0027325                _GetThreadStackStart
 .text          0x00000000c0027340        0x0 callout.o
 .text          0x00000000c0027340        0x0 callfar.o
 .text          0x00000000c0027340       0x24 ipc.o
                0x00000000c0027340                _ipcProcedure
                0x00000000c002734a                _ipcProcedureEx
                0x00000000c0027354                _ipc_dispatch_message
                0x00000000c002735e                _init_ipc
 .text          0x00000000c0027364      0x364 ipccore.o
                0x00000000c0027364                _ipcore_services
                0x00000000c00273da                _ipccore_open
                0x00000000c00274c9                _ipccore_close
                0x00000000c002760a                _ipccore_register
 .text          0x00000000c00276c8       0xe0 sem.o
                0x00000000c00276c8                _init_semaphore
                0x00000000c00276e8                _Down
                0x00000000c0027730                _Up
                0x00000000c002776a                _semaphore_down
                0x00000000c002777b                _semaphore_up
                0x00000000c002778c                _create_semaphore
                0x00000000c0027796                _delete_semaphore
                0x00000000c002779c                _open_semaphore
                0x00000000c00277a2                _close_semaphore
 .text          0x00000000c00277a8      0x851 memory.o
                0x00000000c00277a8                _get_process_heap_pointer
                0x00000000c002784a                _SetKernelHeap
                0x00000000c00278e4                _heapAllocateMemory
                0x00000000c0027abf                _FreeHeap
                0x00000000c0027b7f                _init_heap
                0x00000000c0027cc6                _init_stack
                0x00000000c0027d30                _init_mm
                0x00000000c0027e55                _gcGRAMADO
                0x00000000c0027e5f                _gcEXECUTIVE
                0x00000000c0027f84                _gcMICROKERNEL
                0x00000000c0027f8e                _gcHAL
                0x00000000c0027f98                _gc
 .text          0x00000000c0027ff9      0x443 mminfo.o
                0x00000000c0027ff9                _memoryShowMemoryInfo
                0x00000000c002820f                _show_memory_structs
                0x00000000c0028298                _testingPageAlloc
                0x00000000c00283c6                _showFreepagedMemory
 .text          0x00000000c002843c      0x199 mmpool.o
                0x00000000c002843c                _page
                0x00000000c00284e4                _newPage
 .text          0x00000000c00285d5     0x10bf pages.o
                0x00000000c00285d5                _CreatePageDirectory
                0x00000000c002863b                _CreatePageTable
                0x00000000c0028729                _SetCR3
                0x00000000c0028742                _mapping_ahci1_device_address
                0x00000000c00287b7                _mapping_nic1_device_address
                0x00000000c002882c                _SetUpPaging
                0x00000000c00292b4                _initializeFramesAlloc
                0x00000000c0029341                _allocPages
                0x00000000c0029548                _pEmpty
                0x00000000c0029557                _freePage
                0x00000000c0029587                _notfreePage
                0x00000000c00295b7                _firstSlotForAList
                0x00000000c002961e                _virtual_to_physical
 .text          0x00000000c0029694       0xbe preempt.o
                0x00000000c0029694                _preempt
 .text          0x00000000c0029752      0x15a priority.o
                0x00000000c0029752                _set_priority
                0x00000000c002978b                _KiSetPriority
                0x00000000c0029798                _KiIncreasePriority
                0x00000000c00297a2                _find_higher_priority
                0x00000000c00298a2                _KiFindHigherPriority
 .text          0x00000000c00298ac      0x244 sched.o
                0x00000000c00298ac                _pick_next_thread
                0x00000000c00299d5                _scheduler
                0x00000000c0029a9f                _scheduler_start
                0x00000000c0029aba                _scheduler_lock
                0x00000000c0029aca                _scheduler_unlock
                0x00000000c0029ada                _scheduler_get_status
                0x00000000c0029ae4                _new_task_scheduler
                0x00000000c0029aea                _init_scheduler
 .text          0x00000000c0029af0      0x758 schedi.o
                0x00000000c0029af0                _do_wait
                0x00000000c0029b7e                _block_for_a_reason
                0x00000000c0029bf4                _wakeup_thread_reason
                0x00000000c0029d1c                _wakeup_scan_thread_reason
                0x00000000c0029d89                _KiScheduler
                0x00000000c0029dc1                _KiSelectNextThread
                0x00000000c0029de5                _KiDoThreadReady
                0x00000000c0029dfc                _KiDoThreadRunning
                0x00000000c0029e13                _KiDoThreadSleeping
                0x00000000c0029e2a                _KiDoThreadZombie
                0x00000000c0029e41                _KiDoThreadDead
                0x00000000c0029e58                _KiNewTaskScheduler
                0x00000000c0029e5e                _KiDispatchTask
                0x00000000c0029e64                _KiSetCurrent
                0x00000000c0029e7b                _KiGetCurrent
                0x00000000c0029e88                _KiGetCurrentTask
                0x00000000c0029e95                _get_current
                0x00000000c0029e9f                _get_current_task
                0x00000000c0029ea9                _set_current
                0x00000000c0029ed5                _do_thread_initialized
                0x00000000c0029f0c                _do_thread_ready
                0x00000000c0029f43                _do_thread_running
                0x00000000c0029f92                _do_thread_sleeping
                0x00000000c0029fc9                _do_thread_zombie
                0x00000000c002a009                _do_thread_dead
                0x00000000c002a040                _wakeup_thread
                0x00000000c002a099                _SelectNextThread
                0x00000000c002a14f                _check_for_standby
                0x00000000c002a1d9                _check_quantum
 .text          0x00000000c002a248      0xb59 create.o
                0x00000000c002a248                _KiCreateIdle
                0x00000000c002a675                _KiCreateShell
                0x00000000c002aa0b                _KiCreateTaskManager
 .text          0x00000000c002ada1      0x41c mk.o
                0x00000000c002ada1                _jobcontrol
                0x00000000c002aea9                _jobcheck
                0x00000000c002af79                _microkernelTestLimit
                0x00000000c002af7f                _sys_dead_thread_collector
                0x00000000c002af8d                _sys_exit_process
                0x00000000c002afa7                _sys_exit_thread
                0x00000000c002afbe                _sys_create_process
                0x00000000c002afec                _sys_create_thread
                0x00000000c002b014                _sys_fork
                0x00000000c002b021                _sys_getpid
                0x00000000c002b02b                _sys_getppid
                0x00000000c002b090                _init_microkernel
 .text          0x00000000c002b1bd      0x340 request.o
                0x00000000c002b1bd                _KiRequest
                0x00000000c002b1f1                _request
                0x00000000c002b3ce                _create_request
                0x00000000c002b475                _clear_request
                0x00000000c002b4fd                _code_end = .
                0x00000000c002c000                . = ALIGN (0x1000)
 *fill*         0x00000000c002b4fd      0xb03 

.iplt           0x00000000c002c000        0x0
 .iplt          0x00000000c002c000        0x0 head.o

.rodata         0x00000000c002c000     0xa000
                0x00000000c002c000                _rodata_begin = .
 *(.rdata)
 *(.rodata)
 .rodata        0x00000000c002c000       0xba main.o
 *fill*         0x00000000c002c0ba        0x2 
 .rodata        0x00000000c002c0bc      0x3a1 x86main.o
 .rodata        0x00000000c002c45d        0xf pipe.o
 .rodata        0x00000000c002c46c       0x71 socket.o
 .rodata        0x00000000c002c4dd       0x54 cedge.o
 *fill*         0x00000000c002c531        0xf 
 .rodata        0x00000000c002c540      0x120 ctype.o
                0x00000000c002c560                __ctype
 .rodata        0x00000000c002c660      0x1ec stdio.o
 .rodata        0x00000000c002c84c        0xf stdlib.o
 .rodata        0x00000000c002c85b        0xf string.o
 .rodata        0x00000000c002c86a       0x28 unistd.o
 .rodata        0x00000000c002c892        0xf devmgr.o
 *fill*         0x00000000c002c8a1        0x3 
 .rodata        0x00000000c002c8a4      0x6f1 gde_serv.o
 *fill*         0x00000000c002cf95        0x3 
 .rodata        0x00000000c002cf98      0x12f debug.o
 *fill*         0x00000000c002d0c7        0x1 
 .rodata        0x00000000c002d0c8      0x45e diskvol.o
 .rodata        0x00000000c002d526        0xf object.o
 .rodata        0x00000000c002d535       0x1e runtime.o
 *fill*         0x00000000c002d553        0x1 
 .rodata        0x00000000c002d554       0x99 abort.o
 *fill*         0x00000000c002d5ed        0x3 
 .rodata        0x00000000c002d5f0      0x1ce info.o
 .rodata        0x00000000c002d7be        0xf io.o
 .rodata        0x00000000c002d7cd        0xf modules.o
 .rodata        0x00000000c002d7dc        0xf signal.o
 .rodata        0x00000000c002d7eb        0xf sm.o
 *fill*         0x00000000c002d7fa        0x2 
 .rodata        0x00000000c002d7fc      0x5e6 init.o
 *fill*         0x00000000c002dde2        0x2 
 .rodata        0x00000000c002dde4      0x40e system.o
 *fill*         0x00000000c002e1f2        0x2 
 .rodata        0x00000000c002e1f4      0x1cf execve.o
 .rodata        0x00000000c002e3c3        0xf cpuamd.o
 .rodata        0x00000000c002e3d2        0xf portsx86.o
 .rodata        0x00000000c002e3e1        0xf syscall.o
 .rodata        0x00000000c002e3f0      0x260 x86.o
 .rodata        0x00000000c002e650       0x5f detect.o
 *fill*         0x00000000c002e6af        0x1 
 .rodata        0x00000000c002e6b0       0xcf hal.o
 *fill*         0x00000000c002e77f        0x1 
 .rodata        0x00000000c002e780      0x1d9 ahci.o
 *fill*         0x00000000c002e959        0x3 
 .rodata        0x00000000c002e95c      0x26f ata.o
 .rodata        0x00000000c002ebcb        0xf atadma.o
 .rodata        0x00000000c002ebda       0x24 atainit.o
 .rodata        0x00000000c002ebfe        0xf atairq.o
 *fill*         0x00000000c002ec0d        0x3 
 .rodata        0x00000000c002ec10      0x32d atapci.o
 .rodata        0x00000000c002ef3d       0x42 hdd.o
 .rodata        0x00000000c002ef7f        0xf channel.o
 *fill*         0x00000000c002ef8e        0x2 
 .rodata        0x00000000c002ef90      0x353 network.o
 *fill*         0x00000000c002f2e3        0x1 
 .rodata        0x00000000c002f2e4      0x27a nicintel.o
 *fill*         0x00000000c002f55e        0x2 
 .rodata        0x00000000c002f560       0x31 nsocket.o
 *fill*         0x00000000c002f591        0x3 
 .rodata        0x00000000c002f594     0x1698 pci.o
 .rodata        0x00000000c0030c2c      0x23f pciinfo.o
 .rodata        0x00000000c0030e6b       0x3c pciscan.o
 .rodata        0x00000000c0030ea7        0xf tty.o
 *fill*         0x00000000c0030eb6        0x2 
 .rodata        0x00000000c0030eb8       0x32 video.o
 .rodata        0x00000000c0030eea        0xf vsync.o
 .rodata        0x00000000c0030ef9       0x1b screen.o
 .rodata        0x00000000c0030f14      0x362 xproc.o
 .rodata        0x00000000c0031276       0x2f i8042.o
 .rodata        0x00000000c00312a5       0x26 keyboard.o
 .rodata        0x00000000c00312cb        0xf mouse.o
 *fill*         0x00000000c00312da        0x2 
 .rodata        0x00000000c00312dc       0xb7 ps2kbd.o
 *fill*         0x00000000c0031393        0x1 
 .rodata        0x00000000c0031394      0x142 ps2mouse.o
 *fill*         0x00000000c00314d6        0x2 
 .rodata        0x00000000c00314d8      0x351 ldisc.o
 .rodata        0x00000000c0031829        0xf apic.o
 .rodata        0x00000000c0031838        0xf pic.o
 .rodata        0x00000000c0031847       0x69 rtc.o
 .rodata        0x00000000c00318b0        0xf serial.o
 *fill*         0x00000000c00318bf        0x1 
 .rodata        0x00000000c00318c0      0x10c timer.o
 .rodata        0x00000000c00319cc      0x126 cf.o
 .rodata        0x00000000c0031af2        0xf format.o
 *fill*         0x00000000c0031b01        0x3 
 .rodata        0x00000000c0031b04      0x5dd fs.o
 *fill*         0x00000000c00320e1        0x3 
 .rodata        0x00000000c00320e4      0x19d read.o
 *fill*         0x00000000c0032281        0x3 
 .rodata        0x00000000c0032284       0x60 search.o
 .rodata        0x00000000c00322e4      0x16e write.o
 .rodata        0x00000000c0032452        0xf bg.o
 .rodata        0x00000000c0032461       0x45 bmp.o
 *fill*         0x00000000c00324a6        0x2 
 .rodata        0x00000000c00324a8       0x2c button.o
 .rodata        0x00000000c00324d4       0x4d char.o
 *fill*         0x00000000c0032521        0x3 
 .rodata        0x00000000c0032524      0x118 createw.o
 .rodata        0x00000000c003263c       0x2f dtext.o
 .rodata        0x00000000c003266b       0x45 font.o
 .rodata        0x00000000c00326b0       0xba grid.o
 .rodata        0x00000000c003276a        0xf line.o
 *fill*         0x00000000c0032779        0x3 
 .rodata        0x00000000c003277c      0x234 menu.o
 .rodata        0x00000000c00329b0      0x11d menubar.o
 .rodata        0x00000000c0032acd        0xf pixel.o
 .rodata        0x00000000c0032adc       0x70 rect.o
 .rodata        0x00000000c0032b4c       0xb0 sbar.o
 .rodata        0x00000000c0032bfc       0xb0 toolbar.o
 .rodata        0x00000000c0032cac      0x5ef window.o
 .rodata        0x00000000c003329b       0x2b logoff.o
 *fill*         0x00000000c00332c6        0x2 
 .rodata        0x00000000c00332c8      0x228 logon.o
 .rodata        0x00000000c00334f0        0xf input.o
 .rodata        0x00000000c00334ff       0x20 output.o
 .rodata        0x00000000c003351f        0xf terminal.o
 .rodata        0x00000000c003352e       0x3b desktop.o
 *fill*         0x00000000c0033569        0x3 
 .rodata        0x00000000c003356c       0x53 room.o
 *fill*         0x00000000c00335bf        0x1 
 .rodata        0x00000000c00335c0       0xa0 userenv.o
 .rodata        0x00000000c0033660       0xaa usession.o
 *fill*         0x00000000c003370a        0x2 
 .rodata        0x00000000c003370c      0x25a kgws.o
 *fill*         0x00000000c0033966        0x2 
 .rodata        0x00000000c0033968      0x114 vfs.o
 .rodata        0x00000000c0033a7c      0x122 x86cont.o
 *fill*         0x00000000c0033b9e        0x2 
 .rodata        0x00000000c0033ba0      0x149 x86fault.o
 *fill*         0x00000000c0033ce9        0x3 
 .rodata        0x00000000c0033cec       0xa9 x86start.o
 *fill*         0x00000000c0033d95        0x3 
 .rodata        0x00000000c0033d98      0x178 dispatch.o
 .rodata        0x00000000c0033f10        0xf pheap.o
 *fill*         0x00000000c0033f1f        0x1 
 .rodata        0x00000000c0033f20      0x4ad process.o
 *fill*         0x00000000c00343cd        0x3 
 .rodata        0x00000000c00343d0      0x181 queue.o
 *fill*         0x00000000c0034551        0x3 
 .rodata        0x00000000c0034554       0xc5 spawn.o
 .rodata        0x00000000c0034619        0xf tasks.o
 .rodata        0x00000000c0034628        0xf theap.o
 *fill*         0x00000000c0034637        0x1 
 .rodata        0x00000000c0034638       0xda thread.o
 *fill*         0x00000000c0034712        0x2 
 .rodata        0x00000000c0034714      0x293 threadi.o
 *fill*         0x00000000c00349a7        0x1 
 .rodata        0x00000000c00349a8      0x233 ts.o
 .rodata        0x00000000c0034bdb        0xf tstack.o
 .rodata        0x00000000c0034bea        0xf callout.o
 .rodata        0x00000000c0034bf9        0xf ipc.o
 .rodata        0x00000000c0034c08       0x51 ipccore.o
 .rodata        0x00000000c0034c59        0xf sem.o
 .rodata        0x00000000c0034c68      0x2ab memory.o
 *fill*         0x00000000c0034f13        0x1 
 .rodata        0x00000000c0034f14      0x31a mminfo.o
 .rodata        0x00000000c003522e       0x30 mmpool.o
 *fill*         0x00000000c003525e        0x2 
 .rodata        0x00000000c0035260      0x128 pages.o
 .rodata        0x00000000c0035388        0xf preempt.o
 .rodata        0x00000000c0035397        0xf priority.o
 *fill*         0x00000000c00353a6        0x2 
 .rodata        0x00000000c00353a8       0x5b sched.o
 *fill*         0x00000000c0035403        0x1 
 .rodata        0x00000000c0035404       0x30 schedi.o
 .rodata        0x00000000c0035434      0x1a5 create.o
 *fill*         0x00000000c00355d9        0x3 
 .rodata        0x00000000c00355dc       0x64 mk.o
 .rodata        0x00000000c0035640       0xd0 request.o
                0x00000000c0035710                _rodata_end = .
                0x00000000c0036000                . = ALIGN (0x1000)
 *fill*         0x00000000c0035710      0x8f0 

.eh_frame       0x00000000c0036000     0x7fa4
 .eh_frame      0x00000000c0036000       0x38 main.o
 .eh_frame      0x00000000c0036038       0xa4 x86main.o
                                         0xbc (size before relaxing)
 .eh_frame      0x00000000c00360dc       0x60 pipe.o
                                         0x78 (size before relaxing)
 .eh_frame      0x00000000c003613c       0x40 socket.o
                                         0x58 (size before relaxing)
 .eh_frame      0x00000000c003617c       0x48 cedge.o
                                         0x60 (size before relaxing)
 .eh_frame      0x00000000c00361c4      0x488 stdio.o
                                        0x4a0 (size before relaxing)
 .eh_frame      0x00000000c003664c       0x60 stdlib.o
                                         0x78 (size before relaxing)
 .eh_frame      0x00000000c00366ac      0x1e0 string.o
                                        0x1f8 (size before relaxing)
 .eh_frame      0x00000000c003688c       0x40 unistd.o
                                         0x58 (size before relaxing)
 .eh_frame      0x00000000c00368cc       0x20 devmgr.o
                                         0x38 (size before relaxing)
 .eh_frame      0x00000000c00368ec       0xac gde_serv.o
                                         0xc4 (size before relaxing)
 .eh_frame      0x00000000c0036998       0xc0 debug.o
                                         0xd8 (size before relaxing)
 .eh_frame      0x00000000c0036a58      0x1a4 diskvol.o
                                        0x1bc (size before relaxing)
 .eh_frame      0x00000000c0036bfc       0x20 object.o
                                         0x38 (size before relaxing)
 .eh_frame      0x00000000c0036c1c       0x40 runtime.o
                                         0x58 (size before relaxing)
 .eh_frame      0x00000000c0036c5c       0x5c abort.o
                                         0x74 (size before relaxing)
 .eh_frame      0x00000000c0036cb8       0x50 info.o
                                         0x68 (size before relaxing)
 .eh_frame      0x00000000c0036d08       0x40 io.o
                                         0x58 (size before relaxing)
 .eh_frame      0x00000000c0036d48       0x40 signal.o
                                         0x58 (size before relaxing)
 .eh_frame      0x00000000c0036d88       0x20 sm.o
                                         0x38 (size before relaxing)
 .eh_frame      0x00000000c0036da8       0xa0 init.o
                                         0xb8 (size before relaxing)
 .eh_frame      0x00000000c0036e48      0x3dc system.o
                                        0x3f4 (size before relaxing)
 .eh_frame      0x00000000c0037224       0xc0 execve.o
                                         0xd8 (size before relaxing)
 .eh_frame      0x00000000c00372e4       0x40 cpuamd.o
                                         0x58 (size before relaxing)
 .eh_frame      0x00000000c0037324      0x340 portsx86.o
                                        0x358 (size before relaxing)
 .eh_frame      0x00000000c0037664       0x44 syscall.o
                                         0x5c (size before relaxing)
 .eh_frame      0x00000000c00376a8      0x350 x86.o
                                        0x368 (size before relaxing)
 .eh_frame      0x00000000c00379f8       0xac detect.o
                                         0xc4 (size before relaxing)
 .eh_frame      0x00000000c0037aa4      0x2ec hal.o
                                        0x304 (size before relaxing)
 .eh_frame      0x00000000c0037d90       0x80 ahci.o
                                         0x98 (size before relaxing)
 .eh_frame      0x00000000c0037e10      0x298 ata.o
                                        0x2b0 (size before relaxing)
 .eh_frame      0x00000000c00380a8       0x80 atadma.o
                                         0x98 (size before relaxing)
 .eh_frame      0x00000000c0038128       0x20 atainit.o
                                         0x38 (size before relaxing)
 .eh_frame      0x00000000c0038148       0xc0 atairq.o
                                         0xd8 (size before relaxing)
 .eh_frame      0x00000000c0038208       0x84 atapci.o
                                         0x9c (size before relaxing)
 .eh_frame      0x00000000c003828c      0x148 hdd.o
                                        0x160 (size before relaxing)
 .eh_frame      0x00000000c00383d4       0x80 channel.o
                                         0x98 (size before relaxing)
 .eh_frame      0x00000000c0038454      0x130 network.o
                                        0x148 (size before relaxing)
 .eh_frame      0x00000000c0038584      0x188 nicintel.o
                                        0x1a0 (size before relaxing)
 .eh_frame      0x00000000c003870c       0x80 nsocket.o
                                         0x98 (size before relaxing)
 .eh_frame      0x00000000c003878c      0x22c pci.o
                                        0x244 (size before relaxing)
 .eh_frame      0x00000000c00389b8       0x50 pciinfo.o
                                         0x68 (size before relaxing)
 .eh_frame      0x00000000c0038a08       0x60 pciscan.o
                                         0x78 (size before relaxing)
 .eh_frame      0x00000000c0038a68       0x20 tty.o
                                         0x38 (size before relaxing)
 .eh_frame      0x00000000c0038a88       0x20 usb.o
                                         0x38 (size before relaxing)
 .eh_frame      0x00000000c0038aa8       0xa0 video.o
                                         0xb8 (size before relaxing)
 .eh_frame      0x00000000c0038b48       0x40 vsync.o
                                         0x58 (size before relaxing)
 .eh_frame      0x00000000c0038b88       0xc4 screen.o
                                         0xdc (size before relaxing)
 .eh_frame      0x00000000c0038c4c      0x1ac xproc.o
                                        0x1c4 (size before relaxing)
 .eh_frame      0x00000000c0038df8       0x20 i8042.o
                                         0x38 (size before relaxing)
 .eh_frame      0x00000000c0038e18       0x60 keyboard.o
                                         0x78 (size before relaxing)
 .eh_frame      0x00000000c0038e78       0x20 mouse.o
                                         0x38 (size before relaxing)
 .eh_frame      0x00000000c0038e98      0x2a0 ps2kbd.o
                                        0x2b8 (size before relaxing)
 .eh_frame      0x00000000c0039138      0x1b0 ps2mouse.o
                                        0x1c8 (size before relaxing)
 .eh_frame      0x00000000c00392e8       0xa0 ldisc.o
                                         0xb8 (size before relaxing)
 .eh_frame      0x00000000c0039388      0x124 rtc.o
                                        0x13c (size before relaxing)
 .eh_frame      0x00000000c00394ac       0x40 serial.o
                                         0x58 (size before relaxing)
 .eh_frame      0x00000000c00394ec      0x2e0 timer.o
                                        0x2f8 (size before relaxing)
 .eh_frame      0x00000000c00397cc       0x80 cf.o
                                         0x98 (size before relaxing)
 .eh_frame      0x00000000c003984c       0x40 format.o
                                         0x58 (size before relaxing)
 .eh_frame      0x00000000c003988c      0x508 fs.o
                                        0x520 (size before relaxing)
 .eh_frame      0x00000000c0039d94      0x160 read.o
                                        0x178 (size before relaxing)
 .eh_frame      0x00000000c0039ef4       0xc0 search.o
                                         0xd8 (size before relaxing)
 .eh_frame      0x00000000c0039fb4       0xe0 write.o
                                         0xf8 (size before relaxing)
 .eh_frame      0x00000000c003a094       0xa0 bg.o
                                         0xb8 (size before relaxing)
 .eh_frame      0x00000000c003a134       0x80 bmp.o
                                         0x98 (size before relaxing)
 .eh_frame      0x00000000c003a1b4       0x70 button.o
                                         0x88 (size before relaxing)
 .eh_frame      0x00000000c003a224       0xe0 char.o
                                         0xf8 (size before relaxing)
 .eh_frame      0x00000000c003a304       0x2c createw.o
                                         0x44 (size before relaxing)
 .eh_frame      0x00000000c003a330       0x40 dtext.o
                                         0x58 (size before relaxing)
 .eh_frame      0x00000000c003a370       0x60 font.o
                                         0x78 (size before relaxing)
 .eh_frame      0x00000000c003a3d0       0x60 grid.o
                                         0x78 (size before relaxing)
 .eh_frame      0x00000000c003a430       0x40 line.o
                                         0x58 (size before relaxing)
 .eh_frame      0x00000000c003a470      0x140 menu.o
                                        0x158 (size before relaxing)
 .eh_frame      0x00000000c003a5b0      0x114 menubar.o
                                        0x12c (size before relaxing)
 .eh_frame      0x00000000c003a6c4       0xc0 pixel.o
                                         0xd8 (size before relaxing)
 .eh_frame      0x00000000c003a784      0x128 rect.o
                                        0x140 (size before relaxing)
 .eh_frame      0x00000000c003a8ac       0x20 sbar.o
                                         0x38 (size before relaxing)
 .eh_frame      0x00000000c003a8cc       0x20 toolbar.o
                                         0x38 (size before relaxing)
 .eh_frame      0x00000000c003a8ec      0x800 window.o
                                        0x818 (size before relaxing)
 .eh_frame      0x00000000c003b0ec       0x40 logoff.o
                                         0x58 (size before relaxing)
 .eh_frame      0x00000000c003b12c      0x220 logon.o
                                        0x238 (size before relaxing)
 .eh_frame      0x00000000c003b34c       0x28 output.o
                                         0x40 (size before relaxing)
 .eh_frame      0x00000000c003b374       0x20 terminal.o
                                         0x38 (size before relaxing)
 .eh_frame      0x00000000c003b394      0x220 desktop.o
                                        0x238 (size before relaxing)
 .eh_frame      0x00000000c003b5b4       0xc0 room.o
                                         0xd8 (size before relaxing)
 .eh_frame      0x00000000c003b674      0x160 userenv.o
                                        0x178 (size before relaxing)
 .eh_frame      0x00000000c003b7d4       0xa0 usession.o
                                         0xb8 (size before relaxing)
 .eh_frame      0x00000000c003b874      0x510 kgws.o
                                        0x528 (size before relaxing)
 .eh_frame      0x00000000c003bd84       0x84 vfs.o
                                         0x9c (size before relaxing)
 .eh_frame      0x00000000c003be08      0x120 x86cont.o
                                        0x138 (size before relaxing)
 .eh_frame      0x00000000c003bf28       0x60 x86fault.o
                                         0x78 (size before relaxing)
 .eh_frame      0x00000000c003bf88       0xe0 x86start.o
                                         0xf8 (size before relaxing)
 .eh_frame      0x00000000c003c068      0x200 dispatch.o
                                        0x218 (size before relaxing)
 .eh_frame      0x00000000c003c268      0x6d4 process.o
                                        0x6ec (size before relaxing)
 .eh_frame      0x00000000c003c93c       0xe0 queue.o
                                         0xf8 (size before relaxing)
 .eh_frame      0x00000000c003ca1c       0x60 spawn.o
                                         0x78 (size before relaxing)
 .eh_frame      0x00000000c003ca7c       0x38 tasks.o
                                         0x50 (size before relaxing)
 .eh_frame      0x00000000c003cab4       0x20 theap.o
                                         0x38 (size before relaxing)
 .eh_frame      0x00000000c003cad4      0x160 thread.o
                                        0x178 (size before relaxing)
 .eh_frame      0x00000000c003cc34      0x494 threadi.o
                                        0x4ac (size before relaxing)
 .eh_frame      0x00000000c003d0c8       0xe4 ts.o
                                         0xfc (size before relaxing)
 .eh_frame      0x00000000c003d1ac       0x20 tstack.o
                                         0x38 (size before relaxing)
 .eh_frame      0x00000000c003d1cc       0x80 ipc.o
                                         0x98 (size before relaxing)
 .eh_frame      0x00000000c003d24c       0x80 ipccore.o
                                         0x98 (size before relaxing)
 .eh_frame      0x00000000c003d2cc      0x120 sem.o
                                        0x138 (size before relaxing)
 .eh_frame      0x00000000c003d3ec      0x180 memory.o
                                        0x198 (size before relaxing)
 .eh_frame      0x00000000c003d56c       0x94 mminfo.o
                                         0xac (size before relaxing)
 .eh_frame      0x00000000c003d600       0x40 mmpool.o
                                         0x58 (size before relaxing)
 .eh_frame      0x00000000c003d640      0x1a0 pages.o
                                        0x1b8 (size before relaxing)
 .eh_frame      0x00000000c003d7e0       0x20 preempt.o
                                         0x38 (size before relaxing)
 .eh_frame      0x00000000c003d800       0xa0 priority.o
                                         0xb8 (size before relaxing)
 .eh_frame      0x00000000c003d8a0      0x100 sched.o
                                        0x118 (size before relaxing)
 .eh_frame      0x00000000c003d9a0      0x3a0 schedi.o
                                        0x3b8 (size before relaxing)
 .eh_frame      0x00000000c003dd40       0x64 create.o
                                         0x7c (size before relaxing)
 .eh_frame      0x00000000c003dda4      0x180 mk.o
                                        0x198 (size before relaxing)
 .eh_frame      0x00000000c003df24       0x80 request.o
                                         0x98 (size before relaxing)

.rel.dyn        0x00000000c003dfa4        0x0
 .rel.got       0x00000000c003dfa4        0x0 head.o
 .rel.iplt      0x00000000c003dfa4        0x0 head.o
 .rel.head_x86  0x00000000c003dfa4        0x0 head.o
 .rel.text      0x00000000c003dfa4        0x0 head.o

.data           0x00000000c003dfc0    0x11040
                0x00000000c003dfc0                _data_begin = .
 *(.data)
 .data          0x00000000c003dfc0        0x2 head.o
                0x00000000c003dfc0                _data_start
 *fill*         0x00000000c003dfc2       0x1e 
 .data          0x00000000c003dfe0      0x1f0 main.o
 *fill*         0x00000000c003e1d0       0x10 
 .data          0x00000000c003e1e0      0x1f0 x86main.o
 *fill*         0x00000000c003e3d0       0x10 
 .data          0x00000000c003e3e0      0x1f0 pipe.o
 *fill*         0x00000000c003e5d0       0x10 
 .data          0x00000000c003e5e0      0x1f0 socket.o
 *fill*         0x00000000c003e7d0       0x10 
 .data          0x00000000c003e7e0      0x1f0 cedge.o
 *fill*         0x00000000c003e9d0       0x10 
 .data          0x00000000c003e9e0      0x1f0 ctype.o
 *fill*         0x00000000c003ebd0       0x10 
 .data          0x00000000c003ebe0      0x1f0 stdio.o
 *fill*         0x00000000c003edd0       0x10 
 .data          0x00000000c003ede0      0x1f4 stdlib.o
 *fill*         0x00000000c003efd4        0xc 
 .data          0x00000000c003efe0      0x1f0 string.o
 *fill*         0x00000000c003f1d0       0x10 
 .data          0x00000000c003f1e0      0x1f0 unistd.o
 *fill*         0x00000000c003f3d0       0x10 
 .data          0x00000000c003f3e0      0x1f0 devmgr.o
 *fill*         0x00000000c003f5d0       0x10 
 .data          0x00000000c003f5e0      0x1f0 gde_serv.o
 *fill*         0x00000000c003f7d0       0x10 
 .data          0x00000000c003f7e0      0x1f0 debug.o
 *fill*         0x00000000c003f9d0       0x10 
 .data          0x00000000c003f9e0      0x1f0 diskvol.o
 .data          0x00000000c003fbd0        0x0 install.o
 *fill*         0x00000000c003fbd0       0x10 
 .data          0x00000000c003fbe0      0x1f0 object.o
 *fill*         0x00000000c003fdd0       0x10 
 .data          0x00000000c003fde0      0x1f0 runtime.o
 *fill*         0x00000000c003ffd0       0x10 
 .data          0x00000000c003ffe0      0x1f0 abort.o
 *fill*         0x00000000c00401d0       0x10 
 .data          0x00000000c00401e0      0x1f0 info.o
 *fill*         0x00000000c00403d0       0x10 
 .data          0x00000000c00403e0      0x1f0 io.o
 *fill*         0x00000000c00405d0       0x10 
 .data          0x00000000c00405e0      0x1f0 modules.o
 *fill*         0x00000000c00407d0       0x10 
 .data          0x00000000c00407e0      0x1f0 signal.o
 *fill*         0x00000000c00409d0       0x10 
 .data          0x00000000c00409e0      0x1f0 sm.o
 *fill*         0x00000000c0040bd0       0x10 
 .data          0x00000000c0040be0      0x1f0 init.o
 *fill*         0x00000000c0040dd0       0x10 
 .data          0x00000000c0040de0      0x248 system.o
 *fill*         0x00000000c0041028       0x18 
 .data          0x00000000c0041040      0x1f0 execve.o
 *fill*         0x00000000c0041230       0x10 
 .data          0x00000000c0041240      0x1f0 cpuamd.o
 *fill*         0x00000000c0041430       0x10 
 .data          0x00000000c0041440      0x1f0 portsx86.o
 *fill*         0x00000000c0041630       0x10 
 .data          0x00000000c0041640      0x1f0 syscall.o
 *fill*         0x00000000c0041830       0x10 
 .data          0x00000000c0041840      0x1f0 x86.o
 *fill*         0x00000000c0041a30       0x10 
 .data          0x00000000c0041a40      0x1f0 detect.o
 *fill*         0x00000000c0041c30       0x10 
 .data          0x00000000c0041c40      0x1f0 hal.o
 *fill*         0x00000000c0041e30       0x10 
 .data          0x00000000c0041e40      0x1f0 ahci.o
 *fill*         0x00000000c0042030       0x10 
 .data          0x00000000c0042040      0x1f0 ata.o
 *fill*         0x00000000c0042230       0x10 
 .data          0x00000000c0042240      0x1f0 atadma.o
 *fill*         0x00000000c0042430       0x10 
 .data          0x00000000c0042440      0x1f0 atainit.o
 *fill*         0x00000000c0042630       0x10 
 .data          0x00000000c0042640      0x1f0 atairq.o
 *fill*         0x00000000c0042830       0x10 
 .data          0x00000000c0042840      0x600 atapci.o
                0x00000000c0042a40                _pci_classes
 .data          0x00000000c0042e40      0x1f0 hdd.o
 *fill*         0x00000000c0043030       0x10 
 .data          0x00000000c0043040      0x1f0 channel.o
 *fill*         0x00000000c0043230       0x10 
 .data          0x00000000c0043240      0x1f0 network.o
 *fill*         0x00000000c0043430       0x10 
 .data          0x00000000c0043440      0x1f0 nicintel.o
 *fill*         0x00000000c0043630       0x10 
 .data          0x00000000c0043640      0x1f0 nsocket.o
 *fill*         0x00000000c0043830       0x10 
 .data          0x00000000c0043840      0xe64 pci.o
                0x00000000c0043a40                _pci_classes2
                0x00000000c0043e40                _pci_classnames
 *fill*         0x00000000c00446a4       0x1c 
 .data          0x00000000c00446c0      0x24c pciinfo.o
 *fill*         0x00000000c004490c       0x14 
 .data          0x00000000c0044920      0x1f0 pciscan.o
 *fill*         0x00000000c0044b10       0x10 
 .data          0x00000000c0044b20      0x1f0 tty.o
 .data          0x00000000c0044d10        0x0 usb.o
 *fill*         0x00000000c0044d10       0x10 
 .data          0x00000000c0044d20      0x1f0 video.o
 *fill*         0x00000000c0044f10       0x10 
 .data          0x00000000c0044f20      0x1f0 vsync.o
 *fill*         0x00000000c0045110       0x10 
 .data          0x00000000c0045120      0x1f0 screen.o
 *fill*         0x00000000c0045310       0x10 
 .data          0x00000000c0045320      0x1f0 xproc.o
 *fill*         0x00000000c0045510       0x10 
 .data          0x00000000c0045520      0x1f0 i8042.o
 *fill*         0x00000000c0045710       0x10 
 .data          0x00000000c0045720      0x1f0 keyboard.o
 *fill*         0x00000000c0045910       0x10 
 .data          0x00000000c0045920      0x1f0 mouse.o
 *fill*         0x00000000c0045b10       0x10 
 .data          0x00000000c0045b20      0x1f0 ps2kbd.o
 *fill*         0x00000000c0045d10       0x10 
 .data          0x00000000c0045d20      0x1f0 ps2mouse.o
 *fill*         0x00000000c0045f10       0x10 
 .data          0x00000000c0045f20      0x1f0 ldisc.o
 *fill*         0x00000000c0046110       0x10 
 .data          0x00000000c0046120      0x1f0 apic.o
 *fill*         0x00000000c0046310       0x10 
 .data          0x00000000c0046320      0x1f0 pic.o
 *fill*         0x00000000c0046510       0x10 
 .data          0x00000000c0046520      0x1f0 rtc.o
 *fill*         0x00000000c0046710       0x10 
 .data          0x00000000c0046720      0x1f0 serial.o
 *fill*         0x00000000c0046910       0x10 
 .data          0x00000000c0046920      0x1f0 timer.o
 *fill*         0x00000000c0046b10       0x10 
 .data          0x00000000c0046b20      0x1f0 cf.o
 *fill*         0x00000000c0046d10       0x10 
 .data          0x00000000c0046d20      0x1f0 format.o
 *fill*         0x00000000c0046f10       0x10 
 .data          0x00000000c0046f20      0x1f0 fs.o
 *fill*         0x00000000c0047110       0x10 
 .data          0x00000000c0047120      0x1f0 read.o
 *fill*         0x00000000c0047310       0x10 
 .data          0x00000000c0047320      0x1f0 search.o
 *fill*         0x00000000c0047510       0x10 
 .data          0x00000000c0047520      0x1f0 write.o
 *fill*         0x00000000c0047710       0x10 
 .data          0x00000000c0047720      0x1f0 bg.o
 *fill*         0x00000000c0047910       0x10 
 .data          0x00000000c0047920      0x1f0 bmp.o
 *fill*         0x00000000c0047b10       0x10 
 .data          0x00000000c0047b20      0x1f0 button.o
 *fill*         0x00000000c0047d10       0x10 
 .data          0x00000000c0047d20      0x1f0 char.o
 *fill*         0x00000000c0047f10       0x10 
 .data          0x00000000c0047f20      0x1f0 createw.o
 *fill*         0x00000000c0048110       0x10 
 .data          0x00000000c0048120      0x1f0 dtext.o
 *fill*         0x00000000c0048310       0x10 
 .data          0x00000000c0048320      0x1f0 font.o
 *fill*         0x00000000c0048510       0x10 
 .data          0x00000000c0048520      0x1f0 grid.o
 *fill*         0x00000000c0048710       0x10 
 .data          0x00000000c0048720      0x1f0 line.o
 *fill*         0x00000000c0048910       0x10 
 .data          0x00000000c0048920      0x1f0 menu.o
 *fill*         0x00000000c0048b10       0x10 
 .data          0x00000000c0048b20      0x1f0 menubar.o
 *fill*         0x00000000c0048d10       0x10 
 .data          0x00000000c0048d20      0x1f0 pixel.o
 *fill*         0x00000000c0048f10       0x10 
 .data          0x00000000c0048f20      0x1f0 rect.o
 *fill*         0x00000000c0049110       0x10 
 .data          0x00000000c0049120      0x1f0 sbar.o
 *fill*         0x00000000c0049310       0x10 
 .data          0x00000000c0049320      0x1f0 toolbar.o
 *fill*         0x00000000c0049510       0x10 
 .data          0x00000000c0049520      0x1f0 window.o
 *fill*         0x00000000c0049710       0x10 
 .data          0x00000000c0049720      0x1f0 logoff.o
 *fill*         0x00000000c0049910       0x10 
 .data          0x00000000c0049920      0x1f0 logon.o
 *fill*         0x00000000c0049b10       0x10 
 .data          0x00000000c0049b20      0x1f0 input.o
 *fill*         0x00000000c0049d10       0x10 
 .data          0x00000000c0049d20      0x1f0 output.o
 *fill*         0x00000000c0049f10       0x10 
 .data          0x00000000c0049f20      0x1f0 terminal.o
 *fill*         0x00000000c004a110       0x10 
 .data          0x00000000c004a120      0x1f0 desktop.o
 *fill*         0x00000000c004a310       0x10 
 .data          0x00000000c004a320      0x1f0 room.o
 *fill*         0x00000000c004a510       0x10 
 .data          0x00000000c004a520      0x1f0 userenv.o
 *fill*         0x00000000c004a710       0x10 
 .data          0x00000000c004a720      0x1f0 usession.o
 *fill*         0x00000000c004a910       0x10 
 .data          0x00000000c004a920      0x1f0 kgws.o
 *fill*         0x00000000c004ab10       0x10 
 .data          0x00000000c004ab20      0x1f0 vfs.o
 *fill*         0x00000000c004ad10       0x10 
 .data          0x00000000c004ad20      0x1f0 x86cont.o
 *fill*         0x00000000c004af10       0x10 
 .data          0x00000000c004af20      0x1f0 x86fault.o
 *fill*         0x00000000c004b110       0x10 
 .data          0x00000000c004b120      0x1f0 x86start.o
 *fill*         0x00000000c004b310       0x10 
 .data          0x00000000c004b320      0x1f0 dispatch.o
 *fill*         0x00000000c004b510       0x10 
 .data          0x00000000c004b520      0x1f0 pheap.o
 *fill*         0x00000000c004b710       0x10 
 .data          0x00000000c004b720      0x1f0 process.o
 *fill*         0x00000000c004b910       0x10 
 .data          0x00000000c004b920      0x1f0 queue.o
 *fill*         0x00000000c004bb10       0x10 
 .data          0x00000000c004bb20      0x1f0 spawn.o
 *fill*         0x00000000c004bd10       0x10 
 .data          0x00000000c004bd20      0x1f0 tasks.o
 *fill*         0x00000000c004bf10       0x10 
 .data          0x00000000c004bf20      0x1f0 theap.o
 *fill*         0x00000000c004c110       0x10 
 .data          0x00000000c004c120      0x1f0 thread.o
 *fill*         0x00000000c004c310       0x10 
 .data          0x00000000c004c320      0x1f0 threadi.o
 *fill*         0x00000000c004c510       0x10 
 .data          0x00000000c004c520      0x1f0 ts.o
 *fill*         0x00000000c004c710       0x10 
 .data          0x00000000c004c720      0x1f0 tstack.o
 *fill*         0x00000000c004c910       0x10 
 .data          0x00000000c004c920      0x1f0 callout.o
 .data          0x00000000c004cb10        0x0 callfar.o
 *fill*         0x00000000c004cb10       0x10 
 .data          0x00000000c004cb20      0x1f0 ipc.o
 *fill*         0x00000000c004cd10       0x10 
 .data          0x00000000c004cd20      0x1f0 ipccore.o
 *fill*         0x00000000c004cf10       0x10 
 .data          0x00000000c004cf20      0x1f0 sem.o
 *fill*         0x00000000c004d110       0x10 
 .data          0x00000000c004d120      0x1f0 memory.o
 *fill*         0x00000000c004d310       0x10 
 .data          0x00000000c004d320      0x1f0 mminfo.o
 *fill*         0x00000000c004d510       0x10 
 .data          0x00000000c004d520      0x1f0 mmpool.o
 *fill*         0x00000000c004d710       0x10 
 .data          0x00000000c004d720      0x1f0 pages.o
 *fill*         0x00000000c004d910       0x10 
 .data          0x00000000c004d920      0x1f0 preempt.o
 *fill*         0x00000000c004db10       0x10 
 .data          0x00000000c004db20      0x1f0 priority.o
 *fill*         0x00000000c004dd10       0x10 
 .data          0x00000000c004dd20      0x1f0 sched.o
 *fill*         0x00000000c004df10       0x10 
 .data          0x00000000c004df20      0x1f0 schedi.o
 *fill*         0x00000000c004e110       0x10 
 .data          0x00000000c004e120      0x1f0 create.o
 *fill*         0x00000000c004e310       0x10 
 .data          0x00000000c004e320      0x1f0 mk.o
 *fill*         0x00000000c004e510       0x10 
 .data          0x00000000c004e520      0x1f0 request.o
                0x00000000c004e710                _data_end = .
                0x00000000c004f000                . = ALIGN (0x1000)
 *fill*         0x00000000c004e710      0x8f0 

.got            0x00000000c004f000        0x0
 .got           0x00000000c004f000        0x0 head.o

.got.plt        0x00000000c004f000        0x0
 .got.plt       0x00000000c004f000        0x0 head.o

.igot.plt       0x00000000c004f000        0x0
 .igot.plt      0x00000000c004f000        0x0 head.o

.bss            0x00000000c004f000    0x4e000
                0x00000000c004f000                _bss_begin = .
 *(COMMON)
 COMMON         0x00000000c004f000    0x3c4bc main.o
                0x00000000c004f000                _framepoolBackBuffer3
                0x00000000c004f004                _guiMenu
                0x00000000c004f020                _usessionList
                0x00000000c004f060                _terminalOffsetMax
                0x00000000c004f064                _g_backbuffer_va
                0x00000000c004f068                _g_module_volume_initialized
                0x00000000c004f06c                _server_stdio
                0x00000000c004f080                _menuList
                0x00000000c004f480                _Graphics
                0x00000000c004f4a0                _framepoolList
                0x00000000c00504a0                _dispatcherType
                0x00000000c00504a4                _pci_handler_address
                0x00000000c00504a8                _mainButton3
                0x00000000c00504ac                _zicaaaaadasf
                0x00000000c00504b0                _IdleThread
                0x00000000c00504b4                _Irq9
                0x00000000c00504b8                _g_frontbuffer_va
                0x00000000c00504bc                _clientCW
                0x00000000c00504c0                _userconfig_Status
                0x00000000c00504e0                _prompt
                0x00000000c00505e0                _MenuBar
                0x00000000c00505e4                _semaforo_color
                0x00000000c00505e8                _g_module_debug_initialized
                0x00000000c0050600                _threadList
                0x00000000c0051600                _pci_device
                0x00000000c0051604                _g_module_disk_initialized
                0x00000000c0051608                _terminalOffset
                0x00000000c005160c                _kernel_heap_end
                0x00000000c0051610                _scrolllock_status
                0x00000000c0051620                _screenGrid
                0x00000000c0051820                _wait_queue
                0x00000000c0051824                _windowzoneStart
                0x00000000c0051828                _partition
                0x00000000c005182c                _fatbits
                0x00000000c0051830                _g9x14fontAddress
                0x00000000c0051834                _framepoolBackBuffer2
                0x00000000c0051838                _CurrentChannel
                0x00000000c005183c                _task_switch_status
                0x00000000c0051840                _ata_record_dev
                0x00000000c0051844                _systemzoneEnd
                0x00000000c0051848                _CurrentConsole
                0x00000000c005184c                _lineOffsetMax
                0x00000000c0051850                _delta_x
                0x00000000c0051854                _serverSP
                0x00000000c0051858                _LocalHostHTTPSocket
                0x00000000c005185c                _ioControl_mouse
                0x00000000c0051860                _GRID
                0x00000000c0051864                _cursorIconBuffer
                0x00000000c0051868                _preempted_task
                0x00000000c005186c                _ActiveWindow
                0x00000000c0051870                _mouse_buttom_3
                0x00000000c0051874                _capslock_status
                0x00000000c0051878                _KernelArgs
                0x00000000c0051888                _Irq5
                0x00000000c005188c                _Irq13
                0x00000000c0051890                _Irq2
                0x00000000c00518a0                _pcideviceList
                0x00000000c0051920                _memorysizeAvailablePhysicalMemory
                0x00000000c0051924                _IpcProcedure
                0x00000000c0051928                _fullscreen_window
                0x00000000c0051940                _xxx_gdt
                0x00000000c0051a40                _g_navigationbar_height
                0x00000000c0051a44                _keyboard_message_head
                0x00000000c0051a48                _windowstations_count
                0x00000000c0051a4c                _textcursorStatus
                0x00000000c0051a50                _pmiMemoryInfo
                0x00000000c0051a54                _mm_used_heappool
                0x00000000c0051a58                _current_stdin
                0x00000000c0051a5c                _SavedRect
                0x00000000c0051a60                _TaskManThread
                0x00000000c0051a64                _current_volume_string
                0x00000000c0051a68                _mouse_button_action
                0x00000000c0051a6c                _Irq15
                0x00000000c0051a70                _g_module_fs_initialized
                0x00000000c0051a74                _bmp_change_color_flag
                0x00000000c0051a78                _framepoolBackBuffer4
                0x00000000c0051a80                _idleprocessorList
                0x00000000c0051b00                _g_driver_hdd_initialized
                0x00000000c0051b04                _g9x16fontAddress
                0x00000000c0051b08                _storage
                0x00000000c0051b0c                _systemzoneStart
                0x00000000c0051b10                _waiting_procs
                0x00000000c0051b14                _running_tasks
                0x00000000c0051b18                _desktop_Conductor2
                0x00000000c0051b1c                _g_device_screen_width
                0x00000000c0051b20                _desktop_rootConductor
                0x00000000c0051b24                _extra
                0x00000000c0051b40                _fsbFrames
                0x00000000c0052b40                _CurrentTTY
                0x00000000c0052b44                _g_user_space_framepool_index
                0x00000000c0052b48                _Initialization
                0x00000000c0052b60                _Console
                0x00000000c0052b64                _next_thread
                0x00000000c0052b80                _GUI_CONFIG
                0x00000000c0052bbc                _systemzoneSize
                0x00000000c0052bc0                _zorderCounter
                0x00000000c0052bc4                _mmFramesSuperBlockTotalUsed
                0x00000000c0052bc8                _quantum
                0x00000000c0052bcc                _stderr
                0x00000000c0052bd0                _g_mainwindow_width
                0x00000000c0052bd4                _cur_process
                0x00000000c0052bd8                _waiting_list_head
                0x00000000c0052bdc                _FileAccess
                0x00000000c0052be0                _g_logged
                0x00000000c0052be4                _file_TaskMan
                0x00000000c0052be8                _RGBA
                0x00000000c0052bec                _desktop0
                0x00000000c0052bf0                _blocked_list_head
                0x00000000c0052c00                _nicList
                0x00000000c0052c20                _gui
                0x00000000c0052c24                _CurrentUserSession
                0x00000000c0052c28                _g_device_screen_height
                0x00000000c0052c2c                _g_mousepointer_height
                0x00000000c0052c30                _g_module_uem_initialized
                0x00000000c0052c34                _processor
                0x00000000c0052c40                _userList
                0x00000000c0052c80                _prompt_pos
                0x00000000c0052c84                _saved_mouse_x
                0x00000000c0052c88                _Irq10
                0x00000000c0052c8c                _Conductor
                0x00000000c0052c90                _ide_handler_address
                0x00000000c0052c94                _Process
                0x00000000c0052c98                _mbr
                0x00000000c0052c9c                _current_mmblock
                0x00000000c0052ca0                _deviceList
                0x00000000c00530a0                ___spinlock_ipc
                0x00000000c00530a4                _ASpace
                0x00000000c00530c0                _objects_um
                0x00000000c005f180                _mmFramesSuperBlockSize
                0x00000000c005f184                _kernel_stack_start
                0x00000000c005f188                _Rtc
                0x00000000c005f18c                _start_new_task_address
                0x00000000c005f190                _g_module_gui_initialized
                0x00000000c005f194                _file_Init
                0x00000000c005f198                _KeInitPhase
                0x00000000c005f19c                _windows_count
                0x00000000c005f1a0                _pagetableList
                0x00000000c00601a0                _combobox_window
                0x00000000c00601a4                _framepoolBackBuffer1
                0x00000000c00601a8                _g_driver_video_initialized
                0x00000000c00601ac                _active_window
                0x00000000c00601b0                _mm_used_gramadocore_taskman_heap
                0x00000000c00601c0                _objects_km
                0x00000000c006c280                _vfs
                0x00000000c006c284                _current_pci_device
                0x00000000c006c288                _file_InitTXT
                0x00000000c006c28c                _g_show_text_cursor
                0x00000000c006c290                _Hardware
                0x00000000c006c294                _DefaultUserSession
                0x00000000c006c298                _current_process
                0x00000000c006c29c                _mmglobalInitialingVAR
                0x00000000c006c2a0                _appIconBuffer
                0x00000000c006c2a4                _current_desktop
                0x00000000c006c2a8                _Cursor
                0x00000000c006c2ac                _numlock_status
                0x00000000c006c2b0                _usession0
                0x00000000c006c2b4                _g_gramadocore_shell_heap_size
                0x00000000c006c2b8                _CurrentSocket
                0x00000000c006c2bc                _TaskBar
                0x00000000c006c2c0                _g_module_logoff_initialized
                0x00000000c006c2c4                _pagetableCurrent
                0x00000000c006c2c8                _usession_Conductor
                0x00000000c006c2cc                _g8x14fontAddress
                0x00000000c006c2d0                _Irq12
                0x00000000c006c2d4                _mainButton1
                0x00000000c006c2d8                _mm_used_gramadocore_shell_heap
                0x00000000c006c2dc                _scStatus
                0x00000000c006c2e0                _stdin
                0x00000000c006c2e4                _g_frontbuffer_pa
                0x00000000c006c2e8                _old_mouse_buttom_1
                0x00000000c006c2ec                _gStreams
                0x00000000c006c2f0                _mmFramesSuperBlockTotalFree
                0x00000000c006c2f4                _gcharWidth
                0x00000000c006c2f8                _logonMenu
                0x00000000c006c2fc                _gTaskmanPageDirectoryAddress
                0x00000000c006c300                _savedmouseoverwindowY
                0x00000000c006c304                _file_BootLoader
                0x00000000c006c320                _socketList
                0x00000000c006c3a0                _g_module_logon_initialized
                0x00000000c006c3a4                _client_stderr
                0x00000000c006c3a8                _next_address
                0x00000000c006c3ac                _destroy_window
                0x00000000c006c3b0                _dispatcherQueueIndex
                0x00000000c006c3b4                _fileIconBuffer
                0x00000000c006c3b8                _room0
                0x00000000c006c3bc                _kernel_heap_start
                0x00000000c006c3c0                _g8x16fontAddress
                0x00000000c006c3c4                _g_current_object
                0x00000000c006c3c8                _PrideColorScheme
                0x00000000c006c3cc                _current_room
                0x00000000c006c3d0                _mac_address
                0x00000000c006c3d4                _queue
                0x00000000c006c3d8                _system_disk
                0x00000000c006c3dc                _DispatchCountBlock
                0x00000000c006c3e0                _current_dead_process
                0x00000000c006c3e4                _shift_status
                0x00000000c006c400                _ide_dma_prdt
                0x00000000c006c420                _current_directory
                0x00000000c006c424                _g_wm_pid
                0x00000000c006c440                _vfs_handle_list
                0x00000000c006cc40                _sys_time_ms
                0x00000000c006cc44                _kernel_stack_start_pa
                0x00000000c006cc48                _rect
                0x00000000c006cc4c                _partition_chars
                0x00000000c006cc50                _logonStatus
                0x00000000c006cc54                _framepoolFrontBuffer3
                0x00000000c006cc58                _current_window
                0x00000000c006cc5c                _terminalIconBuffer
                0x00000000c006cc60                _g_available_heap
                0x00000000c006cc64                _start_new_task_id
                0x00000000c006cc68                _process_Conductor2
                0x00000000c006cc6c                _g_heap_count
                0x00000000c006cc70                _alt_status
                0x00000000c006cc74                _schedulerType
                0x00000000c006cc78                _g_cursor_width
                0x00000000c006cc7c                _current_disk
                0x00000000c006cc80                _volume1_rootdir
                0x00000000c006cc84                _g_new_message
                0x00000000c006cc88                _pwd_initialized
                0x00000000c006cc8c                _Firmware
                0x00000000c006cc90                _volume_bootpartition
                0x00000000c006cc94                _file_BootManager
                0x00000000c006cc98                _current_dead_thread
                0x00000000c006cc9c                _current_keyboard_responder
                0x00000000c006cca0                _system_message_write
                0x00000000c006cca4                _semaforo_priority
                0x00000000c006cca8                _mm_used_gramadocore_init_heap
                0x00000000c006ccac                _mouseover_window
                0x00000000c006ccb0                _kbMsgStatus
                0x00000000c006ccb4                _g_module_objectmanager_initialized
                0x00000000c006ccb8                _ata_record_channel
                0x00000000c006ccbc                _zorderTopWindow
                0x00000000c006ccc0                _gKernelPageDirectoryAddress
                0x00000000c006ccc4                _g_current_framepool
                0x00000000c006ccc8                _current_taskman_server
                0x00000000c006cccc                _DefaultUser
                0x00000000c006ccd0                _task_color
                0x00000000c006ccd4                _framepoolFrontBuffer1
                0x00000000c006ccd8                _heapCount
                0x00000000c006ccdc                _windowzoneEnd
                0x00000000c006cce0                _current_filesystem
                0x00000000c006cce4                _Thread
                0x00000000c006cce8                _g_pagedpool_va
                0x00000000c006ccec                _current_stderr
                0x00000000c006cd00                _ProcessorBlock
                0x00000000c006cd30                _current_mouse_responder
                0x00000000c006cd34                _pagedirectoryIdleProcess
                0x00000000c006cd38                _client_stdio
                0x00000000c006cd3c                _volume_vfs
                0x00000000c006cd40                _g_mousepointer_x
                0x00000000c006cd44                _terminal_count
                0x00000000c006cd48                _usersession_start
                0x00000000c006cd4c                _g_cursor_top
                0x00000000c006cd50                _processors_count
                0x00000000c006cd54                _CurrentProcedure
                0x00000000c006cd58                _mmFramesSuperBlockTotal
                0x00000000c006cd5c                _periodic_procs
                0x00000000c006cd60                _g_inputmode
                0x00000000c006cd64                _UserHeap
                0x00000000c006cd68                _keyboard_handler_address
                0x00000000c006cd6c                _kernel_stack_end
                0x00000000c006cd70                _file_Kernel
                0x00000000c006cd74                _current_tss
                0x00000000c006cd78                _g_object_manager_status
                0x00000000c006cd7c                _g_cursor_right
                0x00000000c006cd80                _desktop_Conductor
                0x00000000c006cd84                _InitProcess
                0x00000000c006cd88                _system_volume
                0x00000000c006cd8c                _microkernelStatus
                0x00000000c006cd90                _zones
                0x00000000c006cd94                _lineBuffer
                0x00000000c006cd98                _miMemoryInfo
                0x00000000c006cd9c                _desktopDefault
                0x00000000c006cda0                _g_module_runtime_initialized
                0x00000000c006cda4                _ioControl_keyboard
                0x00000000c006cda8                _file_LA
                0x00000000c006cdac                _VersionInfo
                0x00000000c006cdc0                _inode_list
                0x00000000c006d5c0                _file_CFE
                0x00000000c006d5c4                _system_procs
                0x00000000c006d5c8                _window_with_focus
                0x00000000c006d5cc                _g_proc_status
                0x00000000c006d5d0                _framepoolCurrent
                0x00000000c006d5e0                _desktopList
                0x00000000c006d620                _gNextKeyboardMessage
                0x00000000c006d624                _pagedirectoryShared
                0x00000000c006d628                _g_heappool_va
                0x00000000c006d62c                _g_current_ide_channel
                0x00000000c006d630                _idle
                0x00000000c006d634                _g_spc
                0x00000000c006d638                _KernelHeap
                0x00000000c006d63c                _xxxxcrazy_stuff
                0x00000000c006d640                _pagedirectoryCurrent
                0x00000000c006d644                _gLogonPID
                0x00000000c006d660                _VECTORS
                0x00000000c006da60                _CurrentWindow
                0x00000000c006da64                _g_product_type
                0x00000000c006da68                _vbr
                0x00000000c006da6c                _Irq14
                0x00000000c006da70                _g_nstream
                0x00000000c006da74                _g_heap_pointer
                0x00000000c006da78                _LineShell
                0x00000000c006da7c                _mouse_pos_x
                0x00000000c006da80                _ipcStatus
                0x00000000c006da84                _WindowWithFocus
                0x00000000c006da88                _task_count
                0x00000000c006da8c                _Screen
                0x00000000c006da90                _pipe_gramadocore_init_execve
                0x00000000c006daa0                _channelList
                0x00000000c006db20                _g_kernel_nonpaged_memory
                0x00000000c006db24                _timer_handler_address
                0x00000000c006db28                _kernel_switch
                0x00000000c006db2c                _old_mouse_buttom_3
                0x00000000c006db30                _guiStatus
                0x00000000c006db34                _window_rootConductor
                0x00000000c006db38                _terminalLineMax
                0x00000000c006db40                _heapList
                0x00000000c006db60                _ttyCurrentX
                0x00000000c006db64                _volume2_rootdir
                0x00000000c006db68                _CurrentDesktop
                0x00000000c006db6c                _DriveContext
                0x00000000c006db80                _prompt_err
                0x00000000c006dc80                _abnt2
                0x00000000c006dc84                _gFocusBlocked
                0x00000000c006dc88                _current_socket
                0x00000000c006dc8c                _sata_handler_address
                0x00000000c006dc90                _desktops_count
                0x00000000c006dc94                _KernelPages
                0x00000000c006dca0                _directory_entry_list
                0x00000000c006e4a0                _g_driver_apic_initialized
                0x00000000c006e4a4                __lockfocus
                0x00000000c006e4a8                _file_download
                0x00000000c006e4ac                _saved_mouse_y
                0x00000000c006e4b0                _current_usersession
                0x00000000c006e4b4                _g_video_mode
                0x00000000c006e4b8                _fat
                0x00000000c006e4bc                _ttyCurrentY
                0x00000000c006e4c0                _mm_used_pagedpool
                0x00000000c006e4c4                _stdio_verbosemode_flag
                0x00000000c006e4c8                _file_bin
                0x00000000c006e4cc                _mmFramesSuperBlockEnd
                0x00000000c006e4e0                _processList
                0x00000000c006f4e0                _memorysizeAvailableVirtualMemory
                0x00000000c006f4e4                _memorysizeExtendedMemory
                0x00000000c006f4e8                _Irq8
                0x00000000c006f4ec                _lineLine
                0x00000000c006f4f0                _gPagedPollStart
                0x00000000c006f500                _roomList
                0x00000000c006f540                _g_backbuffer_pa
                0x00000000c006f544                _systemzone
                0x00000000c006f548                _keyboard_message_tail
                0x00000000c006f54c                _dead_thread_collector_status
                0x00000000c006f550                _ata_pci
                0x00000000c006f554                _ATAFlag
                0x00000000c006f558                _sys_time_hz
                0x00000000c006f55c                _gLogoffPID
                0x00000000c006f560                _gfontSize
                0x00000000c006f564                _start_new_task_status
                0x00000000c006f568                _CurrentProcess
                0x00000000c006f56c                _framepoolFrontBuffer4
                0x00000000c006f570                _current_semaphore
                0x00000000c006f580                _realtimeprocessorList
                0x00000000c006f600                _timer_cursor_used
                0x00000000c006f604                _g_gramadocore_init_heap_size
                0x00000000c006f608                _clientCP
                0x00000000c006f60c                _g_gramadocore_init_heap_va
                0x00000000c006f610                _g_total_physical_memory
                0x00000000c006f614                _ready_list_head
                0x00000000c006f618                _g_mousepointer_width
                0x00000000c006f620                _HANDLERS
                0x00000000c006fa40                _usession_rootConductor
                0x00000000c006fa44                _current_terminal
                0x00000000c006fa48                _line_stderr
                0x00000000c006fa4c                _lineOffset
                0x00000000c006fa50                _window_Conductor2
                0x00000000c006fa54                _g_machine_type
                0x00000000c006fa58                _client_stdout
                0x00000000c006fa5c                _eventStatus
                0x00000000c006fa60                _Irq11
                0x00000000c006fa64                _current_stdout
                0x00000000c006fa68                _ipcBuffer
                0x00000000c006fa6c                _newtask_EIP
                0x00000000c006fa70                _memorysizeTotalVirtualMemory
                0x00000000c006fa74                _top_window
                0x00000000c006fa78                _menuitemDefault
                0x00000000c006fa7c                _g_scheduler_status
                0x00000000c006fa80                _FULLSCREEN_TABWINDOW
                0x00000000c006fa84                _quit_message
                0x00000000c006fa88                _g_xserver_pid
                0x00000000c006fa8c                _TaskManProcess
                0x00000000c006fa90                _LineHead
                0x00000000c006faa0                _ide_ports
                0x00000000c006fb00                _SystemUser
                0x00000000c006fb04                _mm_used_backbuffer
                0x00000000c006fb08                _current_quantum
                0x00000000c006fb0c                _stdout
                0x00000000c006fb10                _dead_thread_collector_flag
                0x00000000c006fb20                _activeprocessorList
                0x00000000c006fba0                _windowzoneSize
                0x00000000c006fba4                _g_driver_rtc_initialized
                0x00000000c006fba8                _SystemClasses
                0x00000000c006fbc0                _objects_gui
                0x00000000c007bc80                _g_navigationbar_width
                0x00000000c007bc84                _gws_currentfont_address
                0x00000000c007bca0                _windowList
                0x00000000c007cca0                _gPagedPollEnd
                0x00000000c007cca4                _windowzone
                0x00000000c007cca8                _ShellThread
                0x00000000c007ccac                _file_CS
                0x00000000c007ccb0                _memorysizeFree
                0x00000000c007ccc0                _Streams
                0x00000000c007cd40                _Irq6
                0x00000000c007cd44                _gInitPageDirectoryAddress
                0x00000000c007cd48                _IDE
                0x00000000c007cd5c                _g_cursor_left
                0x00000000c007cd60                _g_system_color
                0x00000000c007cd64                _g_cursor_bottom
                0x00000000c007cd68                _Irq3
                0x00000000c007cd6c                _realtimeStatus
                0x00000000c007cd70                _editbox_window
                0x00000000c007cd74                _kernel_request
                0x00000000c007cd78                _idle_thread
                0x00000000c007cd7c                _g_pageable_framepool_index_max
                0x00000000c007cd80                _current_thread
                0x00000000c007cda0                _Pipes
                0x00000000c007cdc0                _processorsList
                0x00000000c007ce40                _Bank
                0x00000000c007ce44                _fileBuffer
                0x00000000c007ce48                _timer_cursor_status
                0x00000000c007ce4c                _g_current_vm
                0x00000000c007ce50                _rectClientArea
                0x00000000c007ce54                _file_Shell
                0x00000000c007ce60                _current_target_dir
                0x00000000c007ce8c                _mm_used_kernel_area
                0x00000000c007ce90                _schedulerQueue
                0x00000000c007cea0                _systemSize
                0x00000000c007cea4                _object
                0x00000000c007cea8                _gDeveloperOptions
                0x00000000c007cec0                _keybuffer
                0x00000000c007cf40                _zorder
                0x00000000c007cf60                _keyboard_queue
                0x00000000c007d080                _forkid
                0x00000000c007d084                _menus_count
                0x00000000c007d088                _current_volume
                0x00000000c007d08c                _shutdown_address
                0x00000000c007d0a0                _ioControl
                0x00000000c007d120                _devices
                0x00000000c007d124                _terminalLine
                0x00000000c007d128                _serialportError
                0x00000000c007d12c                _desktop1
                0x00000000c007d130                _gcharHeight
                0x00000000c007d134                _g_use_default_user
                0x00000000c007d138                _mouse_buttom_1
                0x00000000c007d13c                _RING0IDLEThread
                0x00000000c007d140                _mouse_status
                0x00000000c007d144                _framepoolFrontBuffer2
                0x00000000c007d148                _pipe_execve
                0x00000000c007d14c                _g_gramadocore_taskman_heap_va
                0x00000000c007d160                _diskList
                0x00000000c007e160                _server_stderr
                0x00000000c007e164                _Conductor2
                0x00000000c007e168                _KernelClasses
                0x00000000c007e180                _fsbFreeFrames
                0x00000000c007f180                _old_mouse_buttom_2
                0x00000000c007f184                _screenBuffers
                0x00000000c007f188                _current_process_pagedirectory_address
                0x00000000c007f18c                _rr_procs
                0x00000000c007f190                _KernelProcess
                0x00000000c007f194                _delta_y
                0x00000000c007f198                _framepoolPageableSpace
                0x00000000c007f19c                _lineLineMax
                0x00000000c007f1a0                _KernelHeapSize
                0x00000000c007f1a4                _xxx_gdt_ptr
                0x00000000c007f1ac                _HostDeviceInfo
                0x00000000c007f1c0                _prompt_out
                0x00000000c007f2c0                _bmp_selected_color
                0x00000000c007f2c4                _g_driver_pci_initialized
                0x00000000c007f2e0                _file_cluster_list
                0x00000000c007fae0                _escape_status
                0x00000000c007fae4                _memorysizeOtherMemory
                0x00000000c007fae8                _IpcProcedureEx
                0x00000000c007fb00                _mmblockList
                0x00000000c0087b00                _g_driver_timer_initialized
                0x00000000c0087b04                _HostInfo
                0x00000000c0087b08                _ata_identify_dev_buf
                0x00000000c0087b0c                _Irq0
                0x00000000c0087b10                _file_dd
                0x00000000c0087b14                _DSpace
                0x00000000c0087b18                _g_next_app
                0x00000000c0087b1c                _g_gramadocore_taskman_heap_size
                0x00000000c0087b20                _timerList
                0x00000000c0087ba0                _file_libs
                0x00000000c0087ba4                _idle_proc
                0x00000000c0087ba8                _clientCR
                0x00000000c0087bac                _g_useGUI
                0x00000000c0087bb0                _g_filesystem_type
                0x00000000c0087bb4                _Irq4
                0x00000000c0087bb8                _dirCount
                0x00000000c0087bbc                _ShellProcess
                0x00000000c0087bc0                _keybuffer_head
                0x00000000c0087bc4                _CurrentBuffer
                0x00000000c0087bc8                _CurrentColorScheme
                0x00000000c0087bcc                _next_quantum
                0x00000000c0087bd0                _process_rootConductor
                0x00000000c0087be0                _dev_nport
                0x00000000c0087c00                _stdio_terminalmode_flag
                0x00000000c0087c04                _menuDefault
                0x00000000c0087c08                _framepoolSmallSystemUserSpace
                0x00000000c0087c0c                _memorysizeTotalPhysicalMemory
                0x00000000c0087c10                _ata
                0x00000000c0087c28                _rootConductor
                0x00000000c0087c2c                _mouse_pos_y
                0x00000000c0087c30                _gSystemStatus
                0x00000000c0087c34                _DeveloperWindowCursor
                0x00000000c0087c38                _tab_status
                0x00000000c0087c3c                _Version
                0x00000000c0087c40                _file_pwd
                0x00000000c0087c60                _REQUEST
                0x00000000c0087c94                _userenvironmentStatus
                0x00000000c0087c98                _g_guiMinimal
                0x00000000c0087c9c                _time_out
                0x00000000c0087ca0                _current_file
                0x00000000c0087ca4                _pagedirectoryKernelProcess
                0x00000000c0087ca8                _g_mainwindow_height
                0x00000000c0087cac                _VideoBlock
                0x00000000c0087cc8                _System
                0x00000000c0087ccc                _KernelSize
                0x00000000c0087cd0                _Line
                0x00000000c0087ce0                _dispatcherReadyList
                0x00000000c0087d08                _ScreenInfo
                0x00000000c0087d0c                _CurrentCursor
                0x00000000c0087d10                _g8x8fontAddress
                0x00000000c0087d14                _KernelStackSize
                0x00000000c0087d18                _zica
                0x00000000c0087d1c                _memorysizeInstalledPhysicalMemory
                0x00000000c0087d20                _keybuffer_index
                0x00000000c0087d24                _g_cursor_color
                0x00000000c0087d28                _memorysizeTotal
                0x00000000c0087d40                _pageAllocList
                0x00000000c0088d40                _g_system_mode
                0x00000000c0088d44                _Irq1
                0x00000000c0088d48                _g_current_video_mode
                0x00000000c0088d4c                _g_heap_count_max
                0x00000000c0088d50                _ESCAPE_E0
                0x00000000c0088d54                _cur_thread
                0x00000000c0088d58                _current_group
                0x00000000c0088d5c                _process_Conductor
                0x00000000c0088d60                _BackBufferInfo
                0x00000000c0088d64                _file_users
                0x00000000c0088d68                _conductorIndex
                0x00000000c0088d6c                _g_mousepointer_y
                0x00000000c0088d70                _g_framepool_max
                0x00000000c0088d74                _task_waiting
                0x00000000c0088d78                _keybuffer_tail
                0x00000000c0088d7c                _g_cursor_y
                0x00000000c0088d80                _mm_used_user_area
                0x00000000c0088d84                _QUEUES
                0x00000000c0088d90                _volume_systempartition
                0x00000000c0088d94                _Irq7
                0x00000000c0088d98                _banksCount
                0x00000000c0088d9c                _Pic
                0x00000000c0088da0                _Platform
                0x00000000c0088da4                _system_message_read
                0x00000000c0088da8                _errno
                0x00000000c0088dac                _old
                0x00000000c0088db0                _g_heap_size
                0x00000000c0088dc0                _zorderList
                0x00000000c0088fc0                _gSystemEdition
                0x00000000c0088fe0                _pagedirectoryList
                0x00000000c0089fe0                _framepoolMediumSystemUserSpace
                0x00000000c0089fe4                _mm_used_lfb
                0x00000000c0089fe8                _menubarDefault
                0x00000000c0089fec                _filesystem
                0x00000000c0089ff0                _logoffStatus
                0x00000000c0089ff4                _current_user
                0x00000000c0089ff8                _WindowProcedure
                0x00000000c0089ffc                _framepoolKernelSpace
                0x00000000c008a000                _memorysizeBaseMemory
                0x00000000c008a004                _g_current_ide_device
                0x00000000c008a008                _key_status
                0x00000000c008a00c                _server_stdout
                0x00000000c008a010                _g_file_system_type
                0x00000000c008a014                _currentNIC
                0x00000000c008a018                _g_gramadocore_shell_heap_va
                0x00000000c008a01c                _mmblockCount
                0x00000000c008a020                _prompt_status
                0x00000000c008a024                _pagedirectoryTaskmanProcess
                0x00000000c008a028                _ambiente
                0x00000000c008a02c                _framepoolLargeSystemUserSpace
                0x00000000c008a030                _g_platform_type
                0x00000000c008a034                _folderIconBuffer
                0x00000000c008a038                _line_stdin
                0x00000000c008a03c                _g_kernel_paged_memory
                0x00000000c008a040                _mmFramesSuperBlockStart
                0x00000000c008a044                _mouseBMPBuffer
                0x00000000c008a048                _g_driver_keyboard_initialized
                0x00000000c008a04c                _rtc
                0x00000000c008a050                _bmp_substitute_color
                0x00000000c008a054                _window_Conductor
                0x00000000c008a058                _lastBank
                0x00000000c008a05c                _e1000_interrupt_flag
                0x00000000c008a060                _g_mm_system_type
                0x00000000c008a064                _g_kernel_lfb
                0x00000000c008a068                _PciDrivers
                0x00000000c008a080                _system_message_queue
                0x00000000c008a100                _usession_Conductor2
                0x00000000c008a104                _terminal_window
                0x00000000c008a108                _mainButton2
                0x00000000c008a10c                _CurrentScreen
                0x00000000c008a110                _sys_time_ticks_total
                0x00000000c008a114                _ttyLineCounter
                0x00000000c008a118                _g_char_attrib
                0x00000000c008a11c                _HumilityColorScheme
                0x00000000c008a120                _memorysizeUsed
                0x00000000c008a124                _window_mouse_over
                0x00000000c008a128                _file_tmp
                0x00000000c008a12c                _ctrl_status
                0x00000000c008a130                _e1000_irq_count
                0x00000000c008a134                _g_module_shell_initialized
                0x00000000c008a138                _g_next_proc
                0x00000000c008a140                _semaphoreList
                0x00000000c008a1c4                _file_CWE
                0x00000000c008a1c8                _winkey_status
                0x00000000c008a1cc                _FrontBufferInfo
                0x00000000c008a1d0                _g_current_list
                0x00000000c008a1d4                _savedmouseoverwindowX
                0x00000000c008a1d8                _line_stdout
                0x00000000c008a1dc                _g_module_mm_initialized
                0x00000000c008a1e0                _g_cursor_height
                0x00000000c008a200                _current_workingdiretory_string
                0x00000000c008a220                _gShellPageDirectoryAddress
                0x00000000c008a240                _volumeList
                0x00000000c008b240                _TERMINAL
                0x00000000c008b4a0                _g_nova_mensagem
                0x00000000c008b4a4                _current_menu
                0x00000000c008b4a8                _pmiCurrent
                0x00000000c008b4ac                _Pci
                0x00000000c008b4b0                _g_cursor_x
                0x00000000c008b4b4                _mouse_buttom_2
                0x00000000c008b4b8                _CurrentUser
 COMMON         0x00000000c008b4bc       0x34 gde_serv.o
                0x00000000c008b4bc                _cwArg1
                0x00000000c008b4c0                _cwArg2
                0x00000000c008b4c4                _cwArg11
                0x00000000c008b4c8                _cwArg8
                0x00000000c008b4cc                _cwArg3
                0x00000000c008b4d0                _cwArg9
                0x00000000c008b4d4                _cwArg10
                0x00000000c008b4d8                _cwFlag
                0x00000000c008b4dc                _cwArg12
                0x00000000c008b4e0                _cwArg5
                0x00000000c008b4e4                _cwArg7
                0x00000000c008b4e8                _cwArg4
                0x00000000c008b4ec                _cwArg6
 COMMON         0x00000000c008b4f0       0x10 debug.o
                0x00000000c008b4f0                _Mind
 COMMON         0x00000000c008b500        0x4 install.o
                0x00000000c008b500                _xxxx_nothingxxxx
 COMMON         0x00000000c008b504        0x4 modules.o
                0x00000000c008b504                _modulesStatus
 COMMON         0x00000000c008b508        0x4 signal.o
                0x00000000c008b508                _Signal
 COMMON         0x00000000c008b50c        0x4 ahci.o
                0x00000000c008b50c                _SATAFlag
 COMMON         0x00000000c008b510        0xc ata.o
                0x00000000c008b510                _dma_addr
                0x00000000c008b514                _current_dev
                0x00000000c008b518                _ready_queue_dev
 COMMON         0x00000000c008b51c        0x8 hdd.o
                0x00000000c008b51c                _hddError
                0x00000000c008b520                _hddStatus
 COMMON         0x00000000c008b524        0x4 network.o
                0x00000000c008b524                _network_status
 COMMON         0x00000000c008b528        0x5 nicintel.o
                0x00000000c008b528                _nic_idt_entry_new_address
                0x00000000c008b52c                _nic_idt_entry_new_number
 *fill*         0x00000000c008b52d        0x3 
 COMMON         0x00000000c008b530        0x8 pci.o
                0x00000000c008b530                _pciListOffset
                0x00000000c008b534                _pci_supported
 COMMON         0x00000000c008b538        0x8 video.o
                0x00000000c008b538                _videoError
                0x00000000c008b53c                _videoStatus
 COMMON         0x00000000c008b540        0x8 screen.o
                0x00000000c008b540                _screen_height
                0x00000000c008b544                _screen_width
 COMMON         0x00000000c008b548        0x4 ps2mouse.o
                0x00000000c008b548                _flagRefreshMouseOver
 COMMON         0x00000000c008b54c        0x8 pic.o
                0x00000000c008b54c                _picError
                0x00000000c008b550                _picStatus
 COMMON         0x00000000c008b554        0xc rtc.o
                0x00000000c008b554                _rtcError
                0x00000000c008b558                _rtcTicks
                0x00000000c008b55c                _rtcStatus
 COMMON         0x00000000c008b560       0x20 timer.o
                0x00000000c008b560                _timerShowTextCursor
                0x00000000c008b564                _timerColor
                0x00000000c008b568                _timerTextCursorStatus
                0x00000000c008b56c                _timerStatus
                0x00000000c008b570                _timerIdleState
                0x00000000c008b574                _timerError
                0x00000000c008b578                _timerLock
                0x00000000c008b57c                _timerLine
 COMMON         0x00000000c008b580    0x10000 write.o
                0x00000000c008b580                _list
 COMMON         0x00000000c009b580       0x18 window.o
                0x00000000c009b580                _save_client_rect_top
                0x00000000c009b584                _fsStatus
                0x00000000c009b588                _xxxxsavemessage
                0x00000000c009b58c                _save_client_rect_left
                0x00000000c009b590                _save_client_rect_height
                0x00000000c009b594                _save_client_rect_width
 COMMON         0x00000000c009b598        0x4 input.o
                0x00000000c009b598                _xxxinini
 COMMON         0x00000000c009b59c        0xc kgws.o
                0x00000000c009b59c                _gws_status
                0x00000000c009b5a0                _gws_wm_PID
                0x00000000c009b5a4                _gws_wm_status
 COMMON         0x00000000c009b5a8       0x40 x86cont.o
                0x00000000c009b5a8                _contextESP
                0x00000000c009b5ac                _contextEDX
                0x00000000c009b5b0                _contextFS
                0x00000000c009b5b4                _contextDS
                0x00000000c009b5b8                _contextESI
                0x00000000c009b5bc                _contextEIP
                0x00000000c009b5c0                _contextGS
                0x00000000c009b5c4                _contextEFLAGS
                0x00000000c009b5c8                _contextECX
                0x00000000c009b5cc                _contextEBP
                0x00000000c009b5d0                _contextCS
                0x00000000c009b5d4                _contextEAX
                0x00000000c009b5d8                _contextEBX
                0x00000000c009b5dc                _contextEDI
                0x00000000c009b5e0                _contextES
                0x00000000c009b5e4                _contextSS
 COMMON         0x00000000c009b5e8        0xc x86fault.o
                0x00000000c009b5e8                _thread_failed_flag
                0x00000000c009b5ec                _demand_paging_flag
                0x00000000c009b5f0                _fatal_error_flag
 COMMON         0x00000000c009b5f4        0x8 process.o
                0x00000000c009b5f4                _processNewPID
                0x00000000c009b5f8                _caller_process_id
 COMMON         0x00000000c009b5fc        0x4 ts.o
                0x00000000c009b5fc                _lock_taskswitch
 COMMON         0x00000000c009b600      0x110 ipccore.o
                0x00000000c009b600                _GRAMADOCORE
 COMMON         0x00000000c009b710        0xc memory.o
                0x00000000c009b710                _mm_prev_pointer
                0x00000000c009b714                _last_size
                0x00000000c009b718                _last_valid
 *(.bss)
 .bss           0x00000000c009b71c        0x0 head.o
                0x00000000c009b71c                _bss_start
 .bss           0x00000000c009b71c       0x28 main.o
 .bss           0x00000000c009b744       0x28 x86main.o
 .bss           0x00000000c009b76c       0x28 pipe.o
 .bss           0x00000000c009b794       0x28 socket.o
 .bss           0x00000000c009b7bc       0x29 cedge.o
 *fill*         0x00000000c009b7e5        0x3 
 .bss           0x00000000c009b7e8       0x28 ctype.o
 .bss           0x00000000c009b810       0x28 stdio.o
 .bss           0x00000000c009b838       0x28 stdlib.o
 .bss           0x00000000c009b860       0x2c string.o
 .bss           0x00000000c009b88c       0x28 unistd.o
 .bss           0x00000000c009b8b4       0x28 devmgr.o
 .bss           0x00000000c009b8dc       0x28 gde_serv.o
 .bss           0x00000000c009b904       0x28 debug.o
 .bss           0x00000000c009b92c       0x28 diskvol.o
 .bss           0x00000000c009b954        0x0 install.o
 .bss           0x00000000c009b954       0x28 object.o
 .bss           0x00000000c009b97c       0x28 runtime.o
 .bss           0x00000000c009b9a4       0x28 abort.o
 .bss           0x00000000c009b9cc       0x28 info.o
 .bss           0x00000000c009b9f4       0x28 io.o
 .bss           0x00000000c009ba1c       0x28 modules.o
 .bss           0x00000000c009ba44       0x28 signal.o
 .bss           0x00000000c009ba6c       0x28 sm.o
 .bss           0x00000000c009ba94       0x28 init.o
 .bss           0x00000000c009babc       0x28 system.o
 .bss           0x00000000c009bae4       0x28 execve.o
 .bss           0x00000000c009bb0c       0x28 cpuamd.o
 .bss           0x00000000c009bb34       0x28 portsx86.o
 .bss           0x00000000c009bb5c       0x28 syscall.o
 *fill*         0x00000000c009bb84       0x1c 
 .bss           0x00000000c009bba0       0x64 x86.o
 .bss           0x00000000c009bc04       0x28 detect.o
 .bss           0x00000000c009bc2c       0x28 hal.o
 .bss           0x00000000c009bc54       0x28 ahci.o
 .bss           0x00000000c009bc7c       0x2c ata.o
                0x00000000c009bc7c                _dev_next_pid
 .bss           0x00000000c009bca8       0x28 atadma.o
 .bss           0x00000000c009bcd0       0x28 atainit.o
 .bss           0x00000000c009bcf8       0x2c atairq.o
 .bss           0x00000000c009bd24       0x28 atapci.o
 .bss           0x00000000c009bd4c       0x28 hdd.o
 .bss           0x00000000c009bd74       0x28 channel.o
 .bss           0x00000000c009bd9c       0x28 network.o
 .bss           0x00000000c009bdc4       0x28 nicintel.o
 .bss           0x00000000c009bdec       0x28 nsocket.o
 .bss           0x00000000c009be14       0x28 pci.o
 .bss           0x00000000c009be3c       0x28 pciinfo.o
 .bss           0x00000000c009be64       0x28 pciscan.o
 .bss           0x00000000c009be8c       0x28 tty.o
 .bss           0x00000000c009beb4        0x0 usb.o
 .bss           0x00000000c009beb4       0x28 video.o
 .bss           0x00000000c009bedc       0x28 vsync.o
 .bss           0x00000000c009bf04       0x28 screen.o
 .bss           0x00000000c009bf2c       0x28 xproc.o
 .bss           0x00000000c009bf54       0x28 i8042.o
 .bss           0x00000000c009bf7c       0x28 keyboard.o
 .bss           0x00000000c009bfa4       0x28 mouse.o
 .bss           0x00000000c009bfcc       0x28 ps2kbd.o
 .bss           0x00000000c009bff4       0x3b ps2mouse.o
                0x00000000c009bff4                _mouse_x
                0x00000000c009bff8                _mouse_y
                0x00000000c009bffc                _mouse_packet_data
                0x00000000c009bffd                _mouse_packet_x
                0x00000000c009bffe                _mouse_packet_y
                0x00000000c009bfff                _mouse_packet_scroll
 *fill*         0x00000000c009c02f        0x1 
 .bss           0x00000000c009c030       0x28 ldisc.o
 .bss           0x00000000c009c058       0x28 apic.o
 .bss           0x00000000c009c080       0x28 pic.o
 .bss           0x00000000c009c0a8       0x28 rtc.o
 .bss           0x00000000c009c0d0       0x28 serial.o
 .bss           0x00000000c009c0f8       0x28 timer.o
 .bss           0x00000000c009c120       0x28 cf.o
 .bss           0x00000000c009c148       0x28 format.o
 .bss           0x00000000c009c170       0x28 fs.o
 .bss           0x00000000c009c198       0x28 read.o
 .bss           0x00000000c009c1c0       0x28 search.o
 .bss           0x00000000c009c1e8       0x28 write.o
 .bss           0x00000000c009c210       0x28 bg.o
 .bss           0x00000000c009c238       0x2c bmp.o
 .bss           0x00000000c009c264       0x28 button.o
 .bss           0x00000000c009c28c       0x28 char.o
 .bss           0x00000000c009c2b4       0x28 createw.o
 .bss           0x00000000c009c2dc       0x28 dtext.o
 .bss           0x00000000c009c304       0x28 font.o
 .bss           0x00000000c009c32c       0x28 grid.o
 .bss           0x00000000c009c354       0x28 line.o
 .bss           0x00000000c009c37c       0x28 menu.o
 .bss           0x00000000c009c3a4       0x28 menubar.o
 .bss           0x00000000c009c3cc       0x28 pixel.o
 .bss           0x00000000c009c3f4       0x28 rect.o
 .bss           0x00000000c009c41c       0x28 sbar.o
 .bss           0x00000000c009c444       0x28 toolbar.o
 .bss           0x00000000c009c46c       0x28 window.o
 .bss           0x00000000c009c494       0x28 logoff.o
 .bss           0x00000000c009c4bc       0x28 logon.o
 .bss           0x00000000c009c4e4       0x28 input.o
 .bss           0x00000000c009c50c       0x28 output.o
 .bss           0x00000000c009c534       0x28 terminal.o
 .bss           0x00000000c009c55c       0x28 desktop.o
 .bss           0x00000000c009c584       0x28 room.o
 .bss           0x00000000c009c5ac       0x28 userenv.o
 .bss           0x00000000c009c5d4       0x28 usession.o
 .bss           0x00000000c009c5fc       0x28 kgws.o
 .bss           0x00000000c009c624       0x28 vfs.o
 .bss           0x00000000c009c64c       0x28 x86cont.o
 .bss           0x00000000c009c674       0x28 x86fault.o
 .bss           0x00000000c009c69c       0x28 x86start.o
 .bss           0x00000000c009c6c4       0x28 dispatch.o
 .bss           0x00000000c009c6ec       0x28 pheap.o
 .bss           0x00000000c009c714       0x28 process.o
 .bss           0x00000000c009c73c       0x28 queue.o
 .bss           0x00000000c009c764       0x28 spawn.o
 .bss           0x00000000c009c78c       0x28 tasks.o
 .bss           0x00000000c009c7b4       0x28 theap.o
 .bss           0x00000000c009c7dc       0x28 thread.o
 .bss           0x00000000c009c804       0x28 threadi.o
 .bss           0x00000000c009c82c       0x28 ts.o
 .bss           0x00000000c009c854       0x28 tstack.o
 .bss           0x00000000c009c87c       0x28 callout.o
 .bss           0x00000000c009c8a4        0x0 callfar.o
 .bss           0x00000000c009c8a4       0x28 ipc.o
 .bss           0x00000000c009c8cc       0x28 ipccore.o
 .bss           0x00000000c009c8f4       0x28 sem.o
 .bss           0x00000000c009c91c       0x28 memory.o
 .bss           0x00000000c009c944       0x28 mminfo.o
 .bss           0x00000000c009c96c       0x28 mmpool.o
 .bss           0x00000000c009c994       0x28 pages.o
 .bss           0x00000000c009c9bc       0x28 preempt.o
 .bss           0x00000000c009c9e4       0x28 priority.o
 .bss           0x00000000c009ca0c       0x28 sched.o
 .bss           0x00000000c009ca34       0x28 schedi.o
 .bss           0x00000000c009ca5c       0x28 create.o
 .bss           0x00000000c009ca84       0x28 mk.o
 .bss           0x00000000c009caac       0x28 request.o
                0x00000000c009cad4                _bss_end = .
                0x00000000c009d000                . = ALIGN (0x1000)
 *fill*         0x00000000c009cad4      0x52c 
                0x00000000c009d000                _kernel_end = .
LOAD head.o
LOAD main.o
LOAD x86main.o
LOAD pipe.o
LOAD socket.o
LOAD cedge.o
LOAD ctype.o
LOAD stdio.o
LOAD stdlib.o
LOAD string.o
LOAD unistd.o
LOAD devmgr.o
LOAD gde_serv.o
LOAD debug.o
LOAD diskvol.o
LOAD install.o
LOAD object.o
LOAD runtime.o
LOAD abort.o
LOAD info.o
LOAD io.o
LOAD modules.o
LOAD signal.o
LOAD sm.o
LOAD init.o
LOAD system.o
LOAD execve.o
LOAD cpuamd.o
LOAD portsx86.o
LOAD syscall.o
LOAD x86.o
LOAD detect.o
LOAD hal.o
LOAD ahci.o
LOAD ata.o
LOAD atadma.o
LOAD atainit.o
LOAD atairq.o
LOAD atapci.o
LOAD hdd.o
LOAD channel.o
LOAD network.o
LOAD nicintel.o
LOAD nsocket.o
LOAD pci.o
LOAD pciinfo.o
LOAD pciscan.o
LOAD tty.o
LOAD usb.o
LOAD video.o
LOAD vsync.o
LOAD screen.o
LOAD xproc.o
LOAD i8042.o
LOAD keyboard.o
LOAD mouse.o
LOAD ps2kbd.o
LOAD ps2mouse.o
LOAD ldisc.o
LOAD apic.o
LOAD pic.o
LOAD rtc.o
LOAD serial.o
LOAD timer.o
LOAD cf.o
LOAD format.o
LOAD fs.o
LOAD read.o
LOAD search.o
LOAD write.o
LOAD bg.o
LOAD bmp.o
LOAD button.o
LOAD char.o
LOAD createw.o
LOAD dtext.o
LOAD font.o
LOAD grid.o
LOAD line.o
LOAD menu.o
LOAD menubar.o
LOAD pixel.o
LOAD rect.o
LOAD sbar.o
LOAD toolbar.o
LOAD window.o
LOAD logoff.o
LOAD logon.o
LOAD input.o
LOAD output.o
LOAD terminal.o
LOAD desktop.o
LOAD room.o
LOAD userenv.o
LOAD usession.o
LOAD kgws.o
LOAD vfs.o
LOAD x86cont.o
LOAD x86fault.o
LOAD x86start.o
LOAD dispatch.o
LOAD pheap.o
LOAD process.o
LOAD queue.o
LOAD spawn.o
LOAD tasks.o
LOAD theap.o
LOAD thread.o
LOAD threadi.o
LOAD ts.o
LOAD tstack.o
LOAD callout.o
LOAD callfar.o
LOAD ipc.o
LOAD ipccore.o
LOAD sem.o
LOAD memory.o
LOAD mminfo.o
LOAD mmpool.o
LOAD pages.o
LOAD preempt.o
LOAD priority.o
LOAD sched.o
LOAD schedi.o
LOAD create.o
LOAD mk.o
LOAD request.o
OUTPUT(KERNEL.BIN elf32-i386)

.comment        0x0000000000000000       0x11
 .comment       0x0000000000000000       0x11 main.o
                                         0x12 (size before relaxing)
 .comment       0x0000000000000011       0x12 x86main.o
 .comment       0x0000000000000011       0x12 pipe.o
 .comment       0x0000000000000011       0x12 socket.o
 .comment       0x0000000000000011       0x12 cedge.o
 .comment       0x0000000000000011       0x12 ctype.o
 .comment       0x0000000000000011       0x12 stdio.o
 .comment       0x0000000000000011       0x12 stdlib.o
 .comment       0x0000000000000011       0x12 string.o
 .comment       0x0000000000000011       0x12 unistd.o
 .comment       0x0000000000000011       0x12 devmgr.o
 .comment       0x0000000000000011       0x12 gde_serv.o
 .comment       0x0000000000000011       0x12 debug.o
 .comment       0x0000000000000011       0x12 diskvol.o
 .comment       0x0000000000000011       0x12 install.o
 .comment       0x0000000000000011       0x12 object.o
 .comment       0x0000000000000011       0x12 runtime.o
 .comment       0x0000000000000011       0x12 abort.o
 .comment       0x0000000000000011       0x12 info.o
 .comment       0x0000000000000011       0x12 io.o
 .comment       0x0000000000000011       0x12 modules.o
 .comment       0x0000000000000011       0x12 signal.o
 .comment       0x0000000000000011       0x12 sm.o
 .comment       0x0000000000000011       0x12 init.o
 .comment       0x0000000000000011       0x12 system.o
 .comment       0x0000000000000011       0x12 execve.o
 .comment       0x0000000000000011       0x12 cpuamd.o
 .comment       0x0000000000000011       0x12 portsx86.o
 .comment       0x0000000000000011       0x12 syscall.o
 .comment       0x0000000000000011       0x12 x86.o
 .comment       0x0000000000000011       0x12 detect.o
 .comment       0x0000000000000011       0x12 hal.o
 .comment       0x0000000000000011       0x12 ahci.o
 .comment       0x0000000000000011       0x12 ata.o
 .comment       0x0000000000000011       0x12 atadma.o
 .comment       0x0000000000000011       0x12 atainit.o
 .comment       0x0000000000000011       0x12 atairq.o
 .comment       0x0000000000000011       0x12 atapci.o
 .comment       0x0000000000000011       0x12 hdd.o
 .comment       0x0000000000000011       0x12 channel.o
 .comment       0x0000000000000011       0x12 network.o
 .comment       0x0000000000000011       0x12 nicintel.o
 .comment       0x0000000000000011       0x12 nsocket.o
 .comment       0x0000000000000011       0x12 pci.o
 .comment       0x0000000000000011       0x12 pciinfo.o
 .comment       0x0000000000000011       0x12 pciscan.o
 .comment       0x0000000000000011       0x12 tty.o
 .comment       0x0000000000000011       0x12 usb.o
 .comment       0x0000000000000011       0x12 video.o
 .comment       0x0000000000000011       0x12 vsync.o
 .comment       0x0000000000000011       0x12 screen.o
 .comment       0x0000000000000011       0x12 xproc.o
 .comment       0x0000000000000011       0x12 i8042.o
 .comment       0x0000000000000011       0x12 keyboard.o
 .comment       0x0000000000000011       0x12 mouse.o
 .comment       0x0000000000000011       0x12 ps2kbd.o
 .comment       0x0000000000000011       0x12 ps2mouse.o
 .comment       0x0000000000000011       0x12 ldisc.o
 .comment       0x0000000000000011       0x12 apic.o
 .comment       0x0000000000000011       0x12 pic.o
 .comment       0x0000000000000011       0x12 rtc.o
 .comment       0x0000000000000011       0x12 serial.o
 .comment       0x0000000000000011       0x12 timer.o
 .comment       0x0000000000000011       0x12 cf.o
 .comment       0x0000000000000011       0x12 format.o
 .comment       0x0000000000000011       0x12 fs.o
 .comment       0x0000000000000011       0x12 read.o
 .comment       0x0000000000000011       0x12 search.o
 .comment       0x0000000000000011       0x12 write.o
 .comment       0x0000000000000011       0x12 bg.o
 .comment       0x0000000000000011       0x12 bmp.o
 .comment       0x0000000000000011       0x12 button.o
 .comment       0x0000000000000011       0x12 char.o
 .comment       0x0000000000000011       0x12 createw.o
 .comment       0x0000000000000011       0x12 dtext.o
 .comment       0x0000000000000011       0x12 font.o
 .comment       0x0000000000000011       0x12 grid.o
 .comment       0x0000000000000011       0x12 line.o
 .comment       0x0000000000000011       0x12 menu.o
 .comment       0x0000000000000011       0x12 menubar.o
 .comment       0x0000000000000011       0x12 pixel.o
 .comment       0x0000000000000011       0x12 rect.o
 .comment       0x0000000000000011       0x12 sbar.o
 .comment       0x0000000000000011       0x12 toolbar.o
 .comment       0x0000000000000011       0x12 window.o
 .comment       0x0000000000000011       0x12 logoff.o
 .comment       0x0000000000000011       0x12 logon.o
 .comment       0x0000000000000011       0x12 input.o
 .comment       0x0000000000000011       0x12 output.o
 .comment       0x0000000000000011       0x12 terminal.o
 .comment       0x0000000000000011       0x12 desktop.o
 .comment       0x0000000000000011       0x12 room.o
 .comment       0x0000000000000011       0x12 userenv.o
 .comment       0x0000000000000011       0x12 usession.o
 .comment       0x0000000000000011       0x12 kgws.o
 .comment       0x0000000000000011       0x12 vfs.o
 .comment       0x0000000000000011       0x12 x86cont.o
 .comment       0x0000000000000011       0x12 x86fault.o
 .comment       0x0000000000000011       0x12 x86start.o
 .comment       0x0000000000000011       0x12 dispatch.o
 .comment       0x0000000000000011       0x12 pheap.o
 .comment       0x0000000000000011       0x12 process.o
 .comment       0x0000000000000011       0x12 queue.o
 .comment       0x0000000000000011       0x12 spawn.o
 .comment       0x0000000000000011       0x12 tasks.o
 .comment       0x0000000000000011       0x12 theap.o
 .comment       0x0000000000000011       0x12 thread.o
 .comment       0x0000000000000011       0x12 threadi.o
 .comment       0x0000000000000011       0x12 ts.o
 .comment       0x0000000000000011       0x12 tstack.o
 .comment       0x0000000000000011       0x12 callout.o
 .comment       0x0000000000000011       0x12 callfar.o
 .comment       0x0000000000000011       0x12 ipc.o
 .comment       0x0000000000000011       0x12 ipccore.o
 .comment       0x0000000000000011       0x12 sem.o
 .comment       0x0000000000000011       0x12 memory.o
 .comment       0x0000000000000011       0x12 mminfo.o
 .comment       0x0000000000000011       0x12 mmpool.o
 .comment       0x0000000000000011       0x12 pages.o
 .comment       0x0000000000000011       0x12 preempt.o
 .comment       0x0000000000000011       0x12 priority.o
 .comment       0x0000000000000011       0x12 sched.o
 .comment       0x0000000000000011       0x12 schedi.o
 .comment       0x0000000000000011       0x12 create.o
 .comment       0x0000000000000011       0x12 mk.o
 .comment       0x0000000000000011       0x12 request.o

.note.GNU-stack
                0x0000000000000000        0x0
 .note.GNU-stack
                0x0000000000000000        0x0 main.o
 .note.GNU-stack
                0x0000000000000000        0x0 x86main.o
 .note.GNU-stack
                0x0000000000000000        0x0 pipe.o
 .note.GNU-stack
                0x0000000000000000        0x0 socket.o
 .note.GNU-stack
                0x0000000000000000        0x0 cedge.o
 .note.GNU-stack
                0x0000000000000000        0x0 ctype.o
 .note.GNU-stack
                0x0000000000000000        0x0 stdio.o
 .note.GNU-stack
                0x0000000000000000        0x0 stdlib.o
 .note.GNU-stack
                0x0000000000000000        0x0 string.o
 .note.GNU-stack
                0x0000000000000000        0x0 unistd.o
 .note.GNU-stack
                0x0000000000000000        0x0 devmgr.o
 .note.GNU-stack
                0x0000000000000000        0x0 gde_serv.o
 .note.GNU-stack
                0x0000000000000000        0x0 debug.o
 .note.GNU-stack
                0x0000000000000000        0x0 diskvol.o
 .note.GNU-stack
                0x0000000000000000        0x0 install.o
 .note.GNU-stack
                0x0000000000000000        0x0 object.o
 .note.GNU-stack
                0x0000000000000000        0x0 runtime.o
 .note.GNU-stack
                0x0000000000000000        0x0 abort.o
 .note.GNU-stack
                0x0000000000000000        0x0 info.o
 .note.GNU-stack
                0x0000000000000000        0x0 io.o
 .note.GNU-stack
                0x0000000000000000        0x0 modules.o
 .note.GNU-stack
                0x0000000000000000        0x0 signal.o
 .note.GNU-stack
                0x0000000000000000        0x0 sm.o
 .note.GNU-stack
                0x0000000000000000        0x0 init.o
 .note.GNU-stack
                0x0000000000000000        0x0 system.o
 .note.GNU-stack
                0x0000000000000000        0x0 execve.o
 .note.GNU-stack
                0x0000000000000000        0x0 cpuamd.o
 .note.GNU-stack
                0x0000000000000000        0x0 portsx86.o
 .note.GNU-stack
                0x0000000000000000        0x0 syscall.o
 .note.GNU-stack
                0x0000000000000000        0x0 x86.o
 .note.GNU-stack
                0x0000000000000000        0x0 detect.o
 .note.GNU-stack
                0x0000000000000000        0x0 hal.o
 .note.GNU-stack
                0x0000000000000000        0x0 ahci.o
 .note.GNU-stack
                0x0000000000000000        0x0 ata.o
 .note.GNU-stack
                0x0000000000000000        0x0 atadma.o
 .note.GNU-stack
                0x0000000000000000        0x0 atainit.o
 .note.GNU-stack
                0x0000000000000000        0x0 atairq.o
 .note.GNU-stack
                0x0000000000000000        0x0 atapci.o
 .note.GNU-stack
                0x0000000000000000        0x0 hdd.o
 .note.GNU-stack
                0x0000000000000000        0x0 channel.o
 .note.GNU-stack
                0x0000000000000000        0x0 network.o
 .note.GNU-stack
                0x0000000000000000        0x0 nicintel.o
 .note.GNU-stack
                0x0000000000000000        0x0 nsocket.o
 .note.GNU-stack
                0x0000000000000000        0x0 pci.o
 .note.GNU-stack
                0x0000000000000000        0x0 pciinfo.o
 .note.GNU-stack
                0x0000000000000000        0x0 pciscan.o
 .note.GNU-stack
                0x0000000000000000        0x0 tty.o
 .note.GNU-stack
                0x0000000000000000        0x0 usb.o
 .note.GNU-stack
                0x0000000000000000        0x0 video.o
 .note.GNU-stack
                0x0000000000000000        0x0 vsync.o
 .note.GNU-stack
                0x0000000000000000        0x0 screen.o
 .note.GNU-stack
                0x0000000000000000        0x0 xproc.o
 .note.GNU-stack
                0x0000000000000000        0x0 i8042.o
 .note.GNU-stack
                0x0000000000000000        0x0 keyboard.o
 .note.GNU-stack
                0x0000000000000000        0x0 mouse.o
 .note.GNU-stack
                0x0000000000000000        0x0 ps2kbd.o
 .note.GNU-stack
                0x0000000000000000        0x0 ps2mouse.o
 .note.GNU-stack
                0x0000000000000000        0x0 ldisc.o
 .note.GNU-stack
                0x0000000000000000        0x0 apic.o
 .note.GNU-stack
                0x0000000000000000        0x0 pic.o
 .note.GNU-stack
                0x0000000000000000        0x0 rtc.o
 .note.GNU-stack
                0x0000000000000000        0x0 serial.o
 .note.GNU-stack
                0x0000000000000000        0x0 timer.o
 .note.GNU-stack
                0x0000000000000000        0x0 cf.o
 .note.GNU-stack
                0x0000000000000000        0x0 format.o
 .note.GNU-stack
                0x0000000000000000        0x0 fs.o
 .note.GNU-stack
                0x0000000000000000        0x0 read.o
 .note.GNU-stack
                0x0000000000000000        0x0 search.o
 .note.GNU-stack
                0x0000000000000000        0x0 write.o
 .note.GNU-stack
                0x0000000000000000        0x0 bg.o
 .note.GNU-stack
                0x0000000000000000        0x0 bmp.o
 .note.GNU-stack
                0x0000000000000000        0x0 button.o
 .note.GNU-stack
                0x0000000000000000        0x0 char.o
 .note.GNU-stack
                0x0000000000000000        0x0 createw.o
 .note.GNU-stack
                0x0000000000000000        0x0 dtext.o
 .note.GNU-stack
                0x0000000000000000        0x0 font.o
 .note.GNU-stack
                0x0000000000000000        0x0 grid.o
 .note.GNU-stack
                0x0000000000000000        0x0 line.o
 .note.GNU-stack
                0x0000000000000000        0x0 menu.o
 .note.GNU-stack
                0x0000000000000000        0x0 menubar.o
 .note.GNU-stack
                0x0000000000000000        0x0 pixel.o
 .note.GNU-stack
                0x0000000000000000        0x0 rect.o
 .note.GNU-stack
                0x0000000000000000        0x0 sbar.o
 .note.GNU-stack
                0x0000000000000000        0x0 toolbar.o
 .note.GNU-stack
                0x0000000000000000        0x0 window.o
 .note.GNU-stack
                0x0000000000000000        0x0 logoff.o
 .note.GNU-stack
                0x0000000000000000        0x0 logon.o
 .note.GNU-stack
                0x0000000000000000        0x0 input.o
 .note.GNU-stack
                0x0000000000000000        0x0 output.o
 .note.GNU-stack
                0x0000000000000000        0x0 terminal.o
 .note.GNU-stack
                0x0000000000000000        0x0 desktop.o
 .note.GNU-stack
                0x0000000000000000        0x0 room.o
 .note.GNU-stack
                0x0000000000000000        0x0 userenv.o
 .note.GNU-stack
                0x0000000000000000        0x0 usession.o
 .note.GNU-stack
                0x0000000000000000        0x0 kgws.o
 .note.GNU-stack
                0x0000000000000000        0x0 vfs.o
 .note.GNU-stack
                0x0000000000000000        0x0 x86cont.o
 .note.GNU-stack
                0x0000000000000000        0x0 x86fault.o
 .note.GNU-stack
                0x0000000000000000        0x0 x86start.o
 .note.GNU-stack
                0x0000000000000000        0x0 dispatch.o
 .note.GNU-stack
                0x0000000000000000        0x0 pheap.o
 .note.GNU-stack
                0x0000000000000000        0x0 process.o
 .note.GNU-stack
                0x0000000000000000        0x0 queue.o
 .note.GNU-stack
                0x0000000000000000        0x0 spawn.o
 .note.GNU-stack
                0x0000000000000000        0x0 tasks.o
 .note.GNU-stack
                0x0000000000000000        0x0 theap.o
 .note.GNU-stack
                0x0000000000000000        0x0 thread.o
 .note.GNU-stack
                0x0000000000000000        0x0 threadi.o
 .note.GNU-stack
                0x0000000000000000        0x0 ts.o
 .note.GNU-stack
                0x0000000000000000        0x0 tstack.o
 .note.GNU-stack
                0x0000000000000000        0x0 callout.o
 .note.GNU-stack
                0x0000000000000000        0x0 callfar.o
 .note.GNU-stack
                0x0000000000000000        0x0 ipc.o
 .note.GNU-stack
                0x0000000000000000        0x0 ipccore.o
 .note.GNU-stack
                0x0000000000000000        0x0 sem.o
 .note.GNU-stack
                0x0000000000000000        0x0 memory.o
 .note.GNU-stack
                0x0000000000000000        0x0 mminfo.o
 .note.GNU-stack
                0x0000000000000000        0x0 mmpool.o
 .note.GNU-stack
                0x0000000000000000        0x0 pages.o
 .note.GNU-stack
                0x0000000000000000        0x0 preempt.o
 .note.GNU-stack
                0x0000000000000000        0x0 priority.o
 .note.GNU-stack
                0x0000000000000000        0x0 sched.o
 .note.GNU-stack
                0x0000000000000000        0x0 schedi.o
 .note.GNU-stack
                0x0000000000000000        0x0 create.o
 .note.GNU-stack
                0x0000000000000000        0x0 mk.o
 .note.GNU-stack
                0x0000000000000000        0x0 request.o
